; ModuleID = 'locals.ebb8ff6e-cgu.0'
source_filename = "locals.ebb8ff6e-cgu.0"
target datalayout = "e-m:e-p:32:32-Fi8-i64:64-v128:64:128-a:0:32-n32-S64"
target triple = "thumbv7m-none-unknown-eabi"

%"rtic::RacyCell<heapless::spsc::Queue<(app::P1_T, u8), 3_usize>>" = type { %"core::cell::UnsafeCell<heapless::spsc::Queue<(app::P1_T, u8), 3_usize>>" }
%"core::cell::UnsafeCell<heapless::spsc::Queue<(app::P1_T, u8), 3_usize>>" = type { %"heapless::spsc::Queue<(app::P1_T, u8), 3_usize>" }
%"heapless::spsc::Queue<(app::P1_T, u8), 3_usize>" = type { %"core::sync::atomic::AtomicUsize", %"core::sync::atomic::AtomicUsize", [3 x { i8, i8 }], [2 x i8] }
%"core::sync::atomic::AtomicUsize" = type { i32 }
%"heapless::spsc::Queue<u8, 2_usize>" = type { %"core::sync::atomic::AtomicUsize", %"core::sync::atomic::AtomicUsize", [2 x i8], [2 x i8] }
%"rtic::RacyCell<heapless::spsc::Queue<u8, 2_usize>>" = type { %"core::cell::UnsafeCell<heapless::spsc::Queue<u8, 2_usize>>" }
%"core::cell::UnsafeCell<heapless::spsc::Queue<u8, 2_usize>>" = type { %"heapless::spsc::Queue<u8, 2_usize>" }
%"core::fmt::Arguments" = type { { [0 x { [0 x i8]*, i32 }]*, i32 }, { i32*, i32 }, { [0 x { i8*, i32* }]*, i32 } }
%"core::panic::location::Location" = type { { [0 x i8]*, i32 }, i32, i32 }
%"core::cell::UnsafeCell<[core::mem::maybe_uninit::MaybeUninit<()>; 1]>" = type { [1 x %"core::mem::maybe_uninit::MaybeUninit<()>"] }
%"core::mem::maybe_uninit::MaybeUninit<()>" = type { [0 x i8] }
%"rtic::RacyCell<[core::mem::maybe_uninit::MaybeUninit<()>; 1]>" = type { %"core::cell::UnsafeCell<[core::mem::maybe_uninit::MaybeUninit<()>; 1]>" }
%"core::option::Option<u8>::Some" = type { [1 x i8], i8 }
%"bare_metal::CriticalSection" = type { {} }
%"[closure@examples/locals.rs:10:1: 10:62].3" = type {}
%"[closure@examples/locals.rs:10:1: 10:62].4" = type {}
%"[closure@examples/locals.rs:10:1: 10:62].5" = type {}
%"cortex_m::peripheral::Peripherals" = type { %"cortex_m::peripheral::CBP", %"cortex_m::peripheral::CPUID", %"cortex_m::peripheral::DCB", %"cortex_m::peripheral::DWT", %"cortex_m::peripheral::FPB", %"cortex_m::peripheral::FPU", %"cortex_m::peripheral::ICB", %"cortex_m::peripheral::ITM", %"cortex_m::peripheral::MPU", %"cortex_m::peripheral::NVIC", %"cortex_m::peripheral::SAU", %"cortex_m::peripheral::SCB", %"cortex_m::peripheral::SYST", %"cortex_m::peripheral::TPIU", {} }
%"cortex_m::peripheral::CBP" = type { %"core::marker::PhantomData<*const ()>" }
%"core::marker::PhantomData<*const ()>" = type {}
%"cortex_m::peripheral::CPUID" = type { %"core::marker::PhantomData<*const ()>" }
%"cortex_m::peripheral::DCB" = type { %"core::marker::PhantomData<*const ()>" }
%"cortex_m::peripheral::DWT" = type { %"core::marker::PhantomData<*const ()>" }
%"cortex_m::peripheral::FPB" = type { %"core::marker::PhantomData<*const ()>" }
%"cortex_m::peripheral::FPU" = type { %"core::marker::PhantomData<*const ()>" }
%"cortex_m::peripheral::ICB" = type { %"core::marker::PhantomData<*const ()>" }
%"cortex_m::peripheral::ITM" = type { %"core::marker::PhantomData<*const ()>" }
%"cortex_m::peripheral::MPU" = type { %"core::marker::PhantomData<*const ()>" }
%"cortex_m::peripheral::NVIC" = type { %"core::marker::PhantomData<*const ()>" }
%"cortex_m::peripheral::SAU" = type { %"core::marker::PhantomData<*const ()>" }
%"cortex_m::peripheral::SCB" = type { %"core::marker::PhantomData<*const ()>" }
%"cortex_m::peripheral::SYST" = type { %"core::marker::PhantomData<*const ()>" }
%"cortex_m::peripheral::TPIU" = type { %"core::marker::PhantomData<*const ()>" }
%"[closure@examples/locals.rs:10:1: 10:62]" = type {}
%"[closure@examples/locals.rs:10:1: 10:62].0" = type {}
%"[closure@examples/locals.rs:10:1: 10:62].6" = type { %"cortex_m::peripheral::Peripherals" }
%"app::Local" = type { i64, i64, i64 }
%"app::__rtic_internal_Monotonics" = type {}
%"app::Shared" = type {}
%"app::__rtic_internal_init_Context" = type { %"cortex_m::peripheral::Peripherals", %"lm3s6965::Peripherals", %"bare_metal::CriticalSection.2" }
%"lm3s6965::Peripherals" = type { {} }
%"bare_metal::CriticalSection.2" = type { %"core::marker::PhantomData<&()>" }
%"core::marker::PhantomData<&()>" = type {}
%"cortex_m::peripheral::nvic::RegisterBlock" = type { [16 x i32], [16 x i32], [16 x i32], [16 x i32], [16 x i32], [16 x i32], [16 x i32], [16 x i32], [16 x i32], [48 x i32], [496 x i8], [580 x i32], i32 }
%"heapless::spsc::IterMut<u8, 2_usize>" = type { %"heapless::spsc::Queue<u8, 2_usize>"*, i32, i32 }
%"heapless::spsc::IterMut<(app::P1_T, u8), 3_usize>" = type { %"heapless::spsc::Queue<(app::P1_T, u8), 3_usize>"*, i32, i32 }
%"core::mem::manually_drop::ManuallyDrop<()>" = type { {} }
%"[closure@core::iter::traits::iterator::Iterator::for_each::call<u8, [closure@examples/locals.rs:10:1: 10:62]>::{closure#0}].1" = type { %"[closure@examples/locals.rs:10:1: 10:62]" }
%"[closure@core::iter::traits::iterator::Iterator::for_each::call<u8, [closure@examples/locals.rs:10:1: 10:62]>::{closure#0}]" = type { %"[closure@examples/locals.rs:10:1: 10:62].0" }
%"core::fmt::Formatter" = type { i32, i32, { i32, i32 }, { i32, i32 }, { {}*, [3 x i32]* }, i8, [3 x i8] }
%"core::fmt::Opaque" = type {}

@alloc180 = private unnamed_addr constant <{ [18 x i8] }> <{ [18 x i8] c"examples/locals.rs" }>, align 1
@alloc167 = private unnamed_addr constant <{ i8*, [12 x i8] }> <{ i8* getelementptr inbounds (<{ [18 x i8] }>, <{ [18 x i8] }>* @alloc180, i32 0, i32 0, i32 0), [12 x i8] c"\12\00\00\00\1B\00\00\00\16\00\00\00" }>, align 4
@alloc169 = private unnamed_addr constant <{ i8*, [12 x i8] }> <{ i8* getelementptr inbounds (<{ [18 x i8] }>, <{ [18 x i8] }>* @alloc180, i32 0, i32 0, i32 0), [12 x i8] c"\12\00\00\00\1C\00\00\00\16\00\00\00" }>, align 4
@alloc171 = private unnamed_addr constant <{ i8*, [12 x i8] }> <{ i8* getelementptr inbounds (<{ [18 x i8] }>, <{ [18 x i8] }>* @alloc180, i32 0, i32 0, i32 0), [12 x i8] c"\12\00\00\00.\00\00\00\09\00\00\00" }>, align 4
@str.0 = internal constant [28 x i8] c"attempt to add with overflow"
@alloc159 = private unnamed_addr constant <{ [22 x i8] }> <{ [22 x i8] c"idle: local_to_idle = " }>, align 1
@alloc112 = private unnamed_addr constant <{ [1 x i8] }> <{ [1 x i8] c"\0A" }>, align 1
@alloc160 = private unnamed_addr constant <{ i8*, [4 x i8], i8*, [4 x i8] }> <{ i8* getelementptr inbounds (<{ [22 x i8] }>, <{ [22 x i8] }>* @alloc159, i32 0, i32 0, i32 0), [4 x i8] c"\16\00\00\00", i8* getelementptr inbounds (<{ [1 x i8] }>, <{ [1 x i8] }>* @alloc112, i32 0, i32 0, i32 0), [4 x i8] c"\01\00\00\00" }>, align 4
@alloc173 = private unnamed_addr constant <{ i8*, [12 x i8] }> <{ i8* getelementptr inbounds (<{ [18 x i8] }>, <{ [18 x i8] }>* @alloc180, i32 0, i32 0, i32 0), [12 x i8] c"\12\00\00\000\00\00\00>\00\00\00" }>, align 4
@alloc175 = private unnamed_addr constant <{ i8*, [12 x i8] }> <{ i8* getelementptr inbounds (<{ [18 x i8] }>, <{ [18 x i8] }>* @alloc180, i32 0, i32 0, i32 0), [12 x i8] c"\12\00\00\00C\00\00\00\09\00\00\00" }>, align 4
@alloc120 = private unnamed_addr constant <{ [20 x i8] }> <{ [20 x i8] c"foo: local_to_foo = " }>, align 1
@alloc121 = private unnamed_addr constant <{ i8*, [4 x i8], i8*, [4 x i8] }> <{ i8* getelementptr inbounds (<{ [20 x i8] }>, <{ [20 x i8] }>* @alloc120, i32 0, i32 0, i32 0), [4 x i8] c"\14\00\00\00", i8* getelementptr inbounds (<{ [1 x i8] }>, <{ [1 x i8] }>* @alloc112, i32 0, i32 0, i32 0), [4 x i8] c"\01\00\00\00" }>, align 4
@alloc177 = private unnamed_addr constant <{ i8*, [12 x i8] }> <{ i8* getelementptr inbounds (<{ [18 x i8] }>, <{ [18 x i8] }>* @alloc180, i32 0, i32 0, i32 0), [12 x i8] c"\12\00\00\00H\00\00\00;\00\00\00" }>, align 4
@alloc179 = private unnamed_addr constant <{ i8*, [12 x i8] }> <{ i8* getelementptr inbounds (<{ [18 x i8] }>, <{ [18 x i8] }>* @alloc180, i32 0, i32 0, i32 0), [12 x i8] c"\12\00\00\00O\00\00\00\09\00\00\00" }>, align 4
@alloc110 = private unnamed_addr constant <{ [20 x i8] }> <{ [20 x i8] c"bar: local_to_bar = " }>, align 1
@alloc111 = private unnamed_addr constant <{ i8*, [4 x i8], i8*, [4 x i8] }> <{ i8* getelementptr inbounds (<{ [20 x i8] }>, <{ [20 x i8] }>* @alloc110, i32 0, i32 0, i32 0), [4 x i8] c"\14\00\00\00", i8* getelementptr inbounds (<{ [1 x i8] }>, <{ [1 x i8] }>* @alloc112, i32 0, i32 0, i32 0), [4 x i8] c"\01\00\00\00" }>, align 4
@alloc181 = private unnamed_addr constant <{ i8*, [12 x i8] }> <{ i8* getelementptr inbounds (<{ [18 x i8] }>, <{ [18 x i8] }>* @alloc180, i32 0, i32 0, i32 0), [12 x i8] c"\12\00\00\00T\00\00\00;\00\00\00" }>, align 4
@_ZN6locals3app43__rtic_internal_local_resource_local_to_foo17ha825634817032b38E = internal global <{ [8 x i8] }> undef, section ".uninit.rtic0", align 8, !dbg !0
@_ZN6locals3app43__rtic_internal_local_resource_local_to_bar17hedba4fee37a14ecaE = internal global <{ [8 x i8] }> undef, section ".uninit.rtic1", align 8, !dbg !31
@_ZN6locals3app44__rtic_internal_local_resource_local_to_idle17h9592b26e73b21be8E = internal global <{ [8 x i8] }> undef, section ".uninit.rtic2", align 8, !dbg !33
@_ZN6locals3app22__rtic_internal_foo_FQ17heb020d3b7041f04fE = internal global <{ [12 x i8] }> zeroinitializer, align 4, !dbg !35
@_ZN6locals3app26__rtic_internal_foo_INPUTS17hdf9dc66c5136e5d7E = internal global <{ [0 x i8] }> zeroinitializer, section ".uninit.rtic3", align 1, !dbg !82
@_ZN6locals3app22__rtic_internal_bar_FQ17h2ab7573cfd764f60E = internal global <{ [12 x i8] }> zeroinitializer, align 4, !dbg !104
@_ZN6locals3app26__rtic_internal_bar_INPUTS17h557822a7bd01f7e2E = internal global <{ [0 x i8] }> zeroinitializer, section ".uninit.rtic4", align 1, !dbg !106
@_ZN6locals3app21__rtic_internal_P1_RQ17h70e79590858a2cecE = internal global <{ [16 x i8] }> zeroinitializer, align 4, !dbg !108
@alloc184 = private unnamed_addr constant <{ [52 x i8] }> <{ [52 x i8] c"/home/norlen/uni/sources/cortex-m-rtic/src/export.rs" }>, align 1
@alloc183 = private unnamed_addr constant <{ i8*, [12 x i8] }> <{ i8* getelementptr inbounds (<{ [52 x i8] }>, <{ [52 x i8] }>* @alloc184, i32 0, i32 0, i32 0), [12 x i8] c"4\00\00\00<\01\00\00\06\00\00\00" }>, align 4
@str.1 = internal constant [35 x i8] c"attempt to shift left with overflow"
@alloc185 = private unnamed_addr constant <{ i8*, [12 x i8] }> <{ i8* getelementptr inbounds (<{ [52 x i8] }>, <{ [52 x i8] }>* @alloc184, i32 0, i32 0, i32 0), [12 x i8] c"4\00\00\00<\01\00\00\05\00\00\00" }>, align 4
@str.2 = internal constant [33 x i8] c"attempt to subtract with overflow"
@alloc187 = private unnamed_addr constant <{ i8*, [12 x i8] }> <{ i8* getelementptr inbounds (<{ [52 x i8] }>, <{ [52 x i8] }>* @alloc184, i32 0, i32 0, i32 0), [12 x i8] c"4\00\00\00<\01\00\00*\00\00\00" }>, align 4
@alloc196 = private unnamed_addr constant <{ [98 x i8] }> <{ [98 x i8] c"/home/norlen/.cargo/registry/src/github.com-1ecc6299db9ec823/cortex-m-0.7.4/src/peripheral/nvic.rs" }>, align 1
@alloc189 = private unnamed_addr constant <{ i8*, [12 x i8] }> <{ i8* getelementptr inbounds (<{ [98 x i8] }>, <{ [98 x i8] }>* @alloc196, i32 0, i32 0, i32 0), [12 x i8] c"b\00\00\00y\00\00\00\09\00\00\00" }>, align 4
@alloc191 = private unnamed_addr constant <{ i8*, [12 x i8] }> <{ i8* getelementptr inbounds (<{ [98 x i8] }>, <{ [98 x i8] }>* @alloc196, i32 0, i32 0, i32 0), [12 x i8] c"b\00\00\00y\00\00\009\00\00\00" }>, align 4
@alloc193 = private unnamed_addr constant <{ i8*, [12 x i8] }> <{ i8* getelementptr inbounds (<{ [98 x i8] }>, <{ [98 x i8] }>* @alloc196, i32 0, i32 0, i32 0), [12 x i8] c"b\00\00\00\C7\00\00\00\12\00\00\00" }>, align 4
@alloc195 = private unnamed_addr constant <{ i8*, [12 x i8] }> <{ i8* getelementptr inbounds (<{ [98 x i8] }>, <{ [98 x i8] }>* @alloc196, i32 0, i32 0, i32 0), [12 x i8] c"b\00\00\00\C7\00\00\00B\00\00\00" }>, align 4
@alloc197 = private unnamed_addr constant <{ i8*, [12 x i8] }> <{ i8* getelementptr inbounds (<{ [98 x i8] }>, <{ [98 x i8] }>* @alloc196, i32 0, i32 0, i32 0), [12 x i8] c"b\00\00\00\DE\00\00\00\0D\00\00\00" }>, align 4
@_ZN8cortex_m10peripheral5TAKEN17h164fa9be397b07d5E = external dso_local global i8
@alloc143 = private unnamed_addr constant <{ [1 x i8] }> zeroinitializer, align 1
@alloc202 = private unnamed_addr constant <{ [88 x i8] }> <{ [88 x i8] c"/home/norlen/.cargo/registry/src/github.com-1ecc6299db9ec823/heapless-0.7.10/src/spsc.rs" }>, align 1
@alloc199 = private unnamed_addr constant <{ i8*, [12 x i8] }> <{ i8* getelementptr inbounds (<{ [88 x i8] }>, <{ [88 x i8] }>* @alloc202, i32 0, i32 0, i32 0), [12 x i8] c"X\00\00\00q\00\00\00\09\00\00\00" }>, align 4
@alloc201 = private unnamed_addr constant <{ i8*, [12 x i8] }> <{ i8* getelementptr inbounds (<{ [88 x i8] }>, <{ [88 x i8] }>* @alloc202, i32 0, i32 0, i32 0), [12 x i8] c"X\00\00\00\7F\01\00\00\15\00\00\00" }>, align 4
@alloc203 = private unnamed_addr constant <{ i8*, [12 x i8] }> <{ i8* getelementptr inbounds (<{ [88 x i8] }>, <{ [88 x i8] }>* @alloc202, i32 0, i32 0, i32 0), [12 x i8] c"X\00\00\00\80\01\00\00\0D\00\00\00" }>, align 4
@alloc204 = private unnamed_addr constant <{ [75 x i8] }> <{ [75 x i8] c"/rustc/9d1b2106e23b1abd32fce1f17267604a5102f57a/library/core/src/ptr/mod.rs" }>, align 1
@alloc205 = private unnamed_addr constant <{ i8*, [12 x i8] }> <{ i8* getelementptr inbounds (<{ [75 x i8] }>, <{ [75 x i8] }>* @alloc204, i32 0, i32 0, i32 0), [12 x i8] c"K\00\00\00\BE\02\00\00\0D\00\00\00" }>, align 4
@alloc206 = private unnamed_addr constant <{ [43 x i8] }> <{ [43 x i8] c"called `Result::unwrap()` on an `Err` value" }>, align 1
@vtable.3 = private unnamed_addr constant <{ i8*, [8 x i8], i8*, [0 x i8] }> <{ i8* bitcast (void ({}*)* @"_ZN4core3ptr29drop_in_place$LT$$LP$$RP$$GT$17h69cf282f965e7cc1E" to i8*), [8 x i8] c"\00\00\00\00\01\00\00\00", i8* bitcast (i1 ({}*, %"core::fmt::Formatter"*)* @"_ZN45_$LT$$LP$$RP$$u20$as$u20$core..fmt..Debug$GT$3fmt17h4cbe5cdd5d7bb3fbE" to i8*), [0 x i8] zeroinitializer }>, align 4, !dbg !148
@alloc210 = private unnamed_addr constant <{ [50 x i8] }> <{ [50 x i8] c"there is no such thing as an acquire/release store" }>, align 1
@alloc220 = private unnamed_addr constant <{ [79 x i8] }> <{ [79 x i8] c"/rustc/9d1b2106e23b1abd32fce1f17267604a5102f57a/library/core/src/sync/atomic.rs" }>, align 1
@alloc212 = private unnamed_addr constant <{ i8*, [12 x i8] }> <{ i8* getelementptr inbounds (<{ [79 x i8] }>, <{ [79 x i8] }>* @alloc220, i32 0, i32 0, i32 0), [12 x i8] c"O\00\00\001\09\00\00\17\00\00\00" }>, align 4
@alloc213 = private unnamed_addr constant <{ [42 x i8] }> <{ [42 x i8] c"there is no such thing as an acquire store" }>, align 1
@alloc215 = private unnamed_addr constant <{ i8*, [12 x i8] }> <{ i8* getelementptr inbounds (<{ [79 x i8] }>, <{ [79 x i8] }>* @alloc220, i32 0, i32 0, i32 0), [12 x i8] c"O\00\00\000\09\00\00\18\00\00\00" }>, align 4
@alloc216 = private unnamed_addr constant <{ [49 x i8] }> <{ [49 x i8] c"there is no such thing as an acquire/release load" }>, align 1
@alloc218 = private unnamed_addr constant <{ i8*, [12 x i8] }> <{ i8* getelementptr inbounds (<{ [79 x i8] }>, <{ [79 x i8] }>* @alloc220, i32 0, i32 0, i32 0), [12 x i8] c"O\00\00\00?\09\00\00\17\00\00\00" }>, align 4
@alloc219 = private unnamed_addr constant <{ [40 x i8] }> <{ [40 x i8] c"there is no such thing as a release load" }>, align 1
@alloc221 = private unnamed_addr constant <{ i8*, [12 x i8] }> <{ i8* getelementptr inbounds (<{ [79 x i8] }>, <{ [79 x i8] }>* @alloc220, i32 0, i32 0, i32 0), [12 x i8] c"O\00\00\00>\09\00\00\18\00\00\00" }>, align 4
@alloc222 = private unnamed_addr constant <{ [12 x i8] }> <{ [12 x i8] c"invalid args" }>, align 1
@alloc223 = private unnamed_addr constant <{ [75 x i8] }> <{ [75 x i8] c"/rustc/9d1b2106e23b1abd32fce1f17267604a5102f57a/library/core/src/fmt/mod.rs" }>, align 1
@alloc224 = private unnamed_addr constant <{ i8*, [12 x i8] }> <{ i8* getelementptr inbounds (<{ [75 x i8] }>, <{ [75 x i8] }>* @alloc223, i32 0, i32 0, i32 0), [12 x i8] c"K\00\00\00k\01\00\00\0D\00\00\00" }>, align 4
@alloc225 = private unnamed_addr constant <{ [2 x i8] }> <{ [2 x i8] c"()" }>, align 1

; core::ptr::drop_in_place<rtic::RacyCell<heapless::spsc::Queue<(locals::app::P1_T,u8),3_usize>>>
; Function Attrs: nounwind
define internal void @"_ZN4core3ptr112drop_in_place$LT$rtic..RacyCell$LT$heapless..spsc..Queue$LT$$LP$locals..app..P1_T$C$u8$RP$$C$3_usize$GT$$GT$$GT$17hb274f222f9172188E"(%"rtic::RacyCell<heapless::spsc::Queue<(app::P1_T, u8), 3_usize>>"* %_1) unnamed_addr #0 !dbg !228 {
start:
  %_1.dbg.spill = alloca %"rtic::RacyCell<heapless::spsc::Queue<(app::P1_T, u8), 3_usize>>"*, align 4
  store %"rtic::RacyCell<heapless::spsc::Queue<(app::P1_T, u8), 3_usize>>"* %_1, %"rtic::RacyCell<heapless::spsc::Queue<(app::P1_T, u8), 3_usize>>"** %_1.dbg.spill, align 4
  call void @llvm.dbg.declare(metadata %"rtic::RacyCell<heapless::spsc::Queue<(app::P1_T, u8), 3_usize>>"** %_1.dbg.spill, metadata !235, metadata !DIExpression()), !dbg !238
  %0 = bitcast %"rtic::RacyCell<heapless::spsc::Queue<(app::P1_T, u8), 3_usize>>"* %_1 to %"core::cell::UnsafeCell<heapless::spsc::Queue<(app::P1_T, u8), 3_usize>>"*, !dbg !238
; call core::ptr::drop_in_place<core::cell::UnsafeCell<heapless::spsc::Queue<(locals::app::P1_T,u8),3_usize>>>
  call void @"_ZN4core3ptr120drop_in_place$LT$core..cell..UnsafeCell$LT$heapless..spsc..Queue$LT$$LP$locals..app..P1_T$C$u8$RP$$C$3_usize$GT$$GT$$GT$17hf78b367adf48cdd4E"(%"core::cell::UnsafeCell<heapless::spsc::Queue<(app::P1_T, u8), 3_usize>>"* %0) #10, !dbg !238
  br label %bb1, !dbg !238

bb1:                                              ; preds = %start
  ret void, !dbg !238
}

; core::ptr::drop_in_place<core::cell::UnsafeCell<heapless::spsc::Queue<(locals::app::P1_T,u8),3_usize>>>
; Function Attrs: nounwind
define internal void @"_ZN4core3ptr120drop_in_place$LT$core..cell..UnsafeCell$LT$heapless..spsc..Queue$LT$$LP$locals..app..P1_T$C$u8$RP$$C$3_usize$GT$$GT$$GT$17hf78b367adf48cdd4E"(%"core::cell::UnsafeCell<heapless::spsc::Queue<(app::P1_T, u8), 3_usize>>"* %_1) unnamed_addr #0 !dbg !239 {
start:
  %_1.dbg.spill = alloca %"core::cell::UnsafeCell<heapless::spsc::Queue<(app::P1_T, u8), 3_usize>>"*, align 4
  store %"core::cell::UnsafeCell<heapless::spsc::Queue<(app::P1_T, u8), 3_usize>>"* %_1, %"core::cell::UnsafeCell<heapless::spsc::Queue<(app::P1_T, u8), 3_usize>>"** %_1.dbg.spill, align 4
  call void @llvm.dbg.declare(metadata %"core::cell::UnsafeCell<heapless::spsc::Queue<(app::P1_T, u8), 3_usize>>"** %_1.dbg.spill, metadata !244, metadata !DIExpression()), !dbg !247
  %0 = bitcast %"core::cell::UnsafeCell<heapless::spsc::Queue<(app::P1_T, u8), 3_usize>>"* %_1 to %"heapless::spsc::Queue<(app::P1_T, u8), 3_usize>"*, !dbg !247
; call core::ptr::drop_in_place<heapless::spsc::Queue<(locals::app::P1_T,u8),3_usize>>
  call void @"_ZN4core3ptr90drop_in_place$LT$heapless..spsc..Queue$LT$$LP$locals..app..P1_T$C$u8$RP$$C$3_usize$GT$$GT$17he5437f9cfde940d1E"(%"heapless::spsc::Queue<(app::P1_T, u8), 3_usize>"* %0) #10, !dbg !247
  br label %bb1, !dbg !247

bb1:                                              ; preds = %start
  ret void, !dbg !247
}

; core::ptr::drop_in_place<()>
; Function Attrs: inlinehint nounwind
define internal void @"_ZN4core3ptr29drop_in_place$LT$$LP$$RP$$GT$17h69cf282f965e7cc1E"({}* %_1) unnamed_addr #1 !dbg !248 {
start:
  %_1.dbg.spill = alloca {}*, align 4
  store {}* %_1, {}** %_1.dbg.spill, align 4
  call void @llvm.dbg.declare(metadata {}** %_1.dbg.spill, metadata !253, metadata !DIExpression()), !dbg !254
  ret void, !dbg !254
}

; core::ptr::drop_in_place<heapless::spsc::Queue<u8,2_usize>>
; Function Attrs: nounwind
define internal void @"_ZN4core3ptr62drop_in_place$LT$heapless..spsc..Queue$LT$u8$C$2_usize$GT$$GT$17h579993977b3e9a2eE"(%"heapless::spsc::Queue<u8, 2_usize>"* %_1) unnamed_addr #0 !dbg !255 {
start:
  %_1.dbg.spill = alloca %"heapless::spsc::Queue<u8, 2_usize>"*, align 4
  store %"heapless::spsc::Queue<u8, 2_usize>"* %_1, %"heapless::spsc::Queue<u8, 2_usize>"** %_1.dbg.spill, align 4
  call void @llvm.dbg.declare(metadata %"heapless::spsc::Queue<u8, 2_usize>"** %_1.dbg.spill, metadata !260, metadata !DIExpression()), !dbg !261
; call <heapless::spsc::Queue<T,_> as core::ops::drop::Drop>::drop
  call void @"_ZN76_$LT$heapless..spsc..Queue$LT$T$C$_$GT$$u20$as$u20$core..ops..drop..Drop$GT$4drop17h9ad36f3161ed8116E"(%"heapless::spsc::Queue<u8, 2_usize>"* align 4 dereferenceable(12) %_1) #10, !dbg !261
  br label %bb1, !dbg !261

bb1:                                              ; preds = %start
  ret void, !dbg !261
}

; core::ptr::drop_in_place<rtic::RacyCell<heapless::spsc::Queue<u8,2_usize>>>
; Function Attrs: nounwind
define internal void @"_ZN4core3ptr84drop_in_place$LT$rtic..RacyCell$LT$heapless..spsc..Queue$LT$u8$C$2_usize$GT$$GT$$GT$17h72e41ff8bc62b96bE"(%"rtic::RacyCell<heapless::spsc::Queue<u8, 2_usize>>"* %_1) unnamed_addr #0 !dbg !262 {
start:
  %_1.dbg.spill = alloca %"rtic::RacyCell<heapless::spsc::Queue<u8, 2_usize>>"*, align 4
  store %"rtic::RacyCell<heapless::spsc::Queue<u8, 2_usize>>"* %_1, %"rtic::RacyCell<heapless::spsc::Queue<u8, 2_usize>>"** %_1.dbg.spill, align 4
  call void @llvm.dbg.declare(metadata %"rtic::RacyCell<heapless::spsc::Queue<u8, 2_usize>>"** %_1.dbg.spill, metadata !267, metadata !DIExpression()), !dbg !270
  %0 = bitcast %"rtic::RacyCell<heapless::spsc::Queue<u8, 2_usize>>"* %_1 to %"core::cell::UnsafeCell<heapless::spsc::Queue<u8, 2_usize>>"*, !dbg !270
; call core::ptr::drop_in_place<core::cell::UnsafeCell<heapless::spsc::Queue<u8,2_usize>>>
  call void @"_ZN4core3ptr92drop_in_place$LT$core..cell..UnsafeCell$LT$heapless..spsc..Queue$LT$u8$C$2_usize$GT$$GT$$GT$17h049b29bad89ea28fE"(%"core::cell::UnsafeCell<heapless::spsc::Queue<u8, 2_usize>>"* %0) #10, !dbg !270
  br label %bb1, !dbg !270

bb1:                                              ; preds = %start
  ret void, !dbg !270
}

; core::ptr::drop_in_place<heapless::spsc::Queue<(locals::app::P1_T,u8),3_usize>>
; Function Attrs: nounwind
define internal void @"_ZN4core3ptr90drop_in_place$LT$heapless..spsc..Queue$LT$$LP$locals..app..P1_T$C$u8$RP$$C$3_usize$GT$$GT$17he5437f9cfde940d1E"(%"heapless::spsc::Queue<(app::P1_T, u8), 3_usize>"* %_1) unnamed_addr #0 !dbg !271 {
start:
  %_1.dbg.spill = alloca %"heapless::spsc::Queue<(app::P1_T, u8), 3_usize>"*, align 4
  store %"heapless::spsc::Queue<(app::P1_T, u8), 3_usize>"* %_1, %"heapless::spsc::Queue<(app::P1_T, u8), 3_usize>"** %_1.dbg.spill, align 4
  call void @llvm.dbg.declare(metadata %"heapless::spsc::Queue<(app::P1_T, u8), 3_usize>"** %_1.dbg.spill, metadata !276, metadata !DIExpression()), !dbg !277
; call <heapless::spsc::Queue<T,_> as core::ops::drop::Drop>::drop
  call void @"_ZN76_$LT$heapless..spsc..Queue$LT$T$C$_$GT$$u20$as$u20$core..ops..drop..Drop$GT$4drop17hde889c84868322b6E"(%"heapless::spsc::Queue<(app::P1_T, u8), 3_usize>"* align 4 dereferenceable(16) %_1) #10, !dbg !277
  br label %bb1, !dbg !277

bb1:                                              ; preds = %start
  ret void, !dbg !277
}

; core::ptr::drop_in_place<core::cell::UnsafeCell<heapless::spsc::Queue<u8,2_usize>>>
; Function Attrs: nounwind
define internal void @"_ZN4core3ptr92drop_in_place$LT$core..cell..UnsafeCell$LT$heapless..spsc..Queue$LT$u8$C$2_usize$GT$$GT$$GT$17h049b29bad89ea28fE"(%"core::cell::UnsafeCell<heapless::spsc::Queue<u8, 2_usize>>"* %_1) unnamed_addr #0 !dbg !278 {
start:
  %_1.dbg.spill = alloca %"core::cell::UnsafeCell<heapless::spsc::Queue<u8, 2_usize>>"*, align 4
  store %"core::cell::UnsafeCell<heapless::spsc::Queue<u8, 2_usize>>"* %_1, %"core::cell::UnsafeCell<heapless::spsc::Queue<u8, 2_usize>>"** %_1.dbg.spill, align 4
  call void @llvm.dbg.declare(metadata %"core::cell::UnsafeCell<heapless::spsc::Queue<u8, 2_usize>>"** %_1.dbg.spill, metadata !283, metadata !DIExpression()), !dbg !286
  %0 = bitcast %"core::cell::UnsafeCell<heapless::spsc::Queue<u8, 2_usize>>"* %_1 to %"heapless::spsc::Queue<u8, 2_usize>"*, !dbg !286
; call core::ptr::drop_in_place<heapless::spsc::Queue<u8,2_usize>>
  call void @"_ZN4core3ptr62drop_in_place$LT$heapless..spsc..Queue$LT$u8$C$2_usize$GT$$GT$17h579993977b3e9a2eE"(%"heapless::spsc::Queue<u8, 2_usize>"* %0) #10, !dbg !286
  br label %bb1, !dbg !286

bb1:                                              ; preds = %start
  ret void, !dbg !286
}

; <lm3s6965::Interrupt as bare_metal::Nr>::nr
; Function Attrs: inlinehint nounwind
define internal i8 @"_ZN54_$LT$lm3s6965..Interrupt$u20$as$u20$bare_metal..Nr$GT$2nr17h9796bf85b9167b29E"(i8* align 1 dereferenceable(1) %self) unnamed_addr #1 !dbg !287 {
start:
  %self.dbg.spill = alloca i8*, align 4
  %0 = alloca i8, align 1
  store i8* %self, i8** %self.dbg.spill, align 4
  call void @llvm.dbg.declare(metadata i8** %self.dbg.spill, metadata !294, metadata !DIExpression()), !dbg !295
  %1 = load i8, i8* %self, align 1, !dbg !296, !range !297
  %_2 = zext i8 %1 to i32, !dbg !296
  switch i32 %_2, label %bb2 [
    i32 0, label %bb3
    i32 1, label %bb4
    i32 2, label %bb5
    i32 3, label %bb6
    i32 4, label %bb7
    i32 5, label %bb8
    i32 6, label %bb9
    i32 7, label %bb10
    i32 8, label %bb11
    i32 9, label %bb12
    i32 10, label %bb13
    i32 11, label %bb14
    i32 12, label %bb15
    i32 13, label %bb16
    i32 14, label %bb17
    i32 15, label %bb18
    i32 16, label %bb19
    i32 17, label %bb20
    i32 18, label %bb21
    i32 19, label %bb22
    i32 20, label %bb23
    i32 21, label %bb24
    i32 22, label %bb25
    i32 23, label %bb26
    i32 24, label %bb27
    i32 25, label %bb28
    i32 26, label %bb29
    i32 27, label %bb30
    i32 28, label %bb31
    i32 29, label %bb32
    i32 30, label %bb33
    i32 31, label %bb34
    i32 32, label %bb35
    i32 33, label %bb36
    i32 34, label %bb37
    i32 35, label %bb38
    i32 36, label %bb39
    i32 37, label %bb1
  ], !dbg !298

bb2:                                              ; preds = %start
  unreachable, !dbg !296

bb3:                                              ; preds = %start
  store i8 0, i8* %0, align 1, !dbg !299
  br label %bb40, !dbg !299

bb4:                                              ; preds = %start
  store i8 1, i8* %0, align 1, !dbg !300
  br label %bb40, !dbg !300

bb5:                                              ; preds = %start
  store i8 2, i8* %0, align 1, !dbg !301
  br label %bb40, !dbg !301

bb6:                                              ; preds = %start
  store i8 3, i8* %0, align 1, !dbg !302
  br label %bb40, !dbg !302

bb7:                                              ; preds = %start
  store i8 4, i8* %0, align 1, !dbg !303
  br label %bb40, !dbg !303

bb8:                                              ; preds = %start
  store i8 5, i8* %0, align 1, !dbg !304
  br label %bb40, !dbg !304

bb9:                                              ; preds = %start
  store i8 6, i8* %0, align 1, !dbg !305
  br label %bb40, !dbg !305

bb10:                                             ; preds = %start
  store i8 7, i8* %0, align 1, !dbg !306
  br label %bb40, !dbg !306

bb11:                                             ; preds = %start
  store i8 8, i8* %0, align 1, !dbg !307
  br label %bb40, !dbg !307

bb12:                                             ; preds = %start
  store i8 9, i8* %0, align 1, !dbg !308
  br label %bb40, !dbg !308

bb13:                                             ; preds = %start
  store i8 10, i8* %0, align 1, !dbg !309
  br label %bb40, !dbg !309

bb14:                                             ; preds = %start
  store i8 11, i8* %0, align 1, !dbg !310
  br label %bb40, !dbg !310

bb15:                                             ; preds = %start
  store i8 12, i8* %0, align 1, !dbg !311
  br label %bb40, !dbg !311

bb16:                                             ; preds = %start
  store i8 13, i8* %0, align 1, !dbg !312
  br label %bb40, !dbg !312

bb17:                                             ; preds = %start
  store i8 14, i8* %0, align 1, !dbg !313
  br label %bb40, !dbg !313

bb18:                                             ; preds = %start
  store i8 15, i8* %0, align 1, !dbg !314
  br label %bb40, !dbg !314

bb19:                                             ; preds = %start
  store i8 16, i8* %0, align 1, !dbg !315
  br label %bb40, !dbg !315

bb20:                                             ; preds = %start
  store i8 17, i8* %0, align 1, !dbg !316
  br label %bb40, !dbg !316

bb21:                                             ; preds = %start
  store i8 18, i8* %0, align 1, !dbg !317
  br label %bb40, !dbg !317

bb22:                                             ; preds = %start
  store i8 19, i8* %0, align 1, !dbg !318
  br label %bb40, !dbg !318

bb23:                                             ; preds = %start
  store i8 20, i8* %0, align 1, !dbg !319
  br label %bb40, !dbg !319

bb24:                                             ; preds = %start
  store i8 21, i8* %0, align 1, !dbg !320
  br label %bb40, !dbg !320

bb25:                                             ; preds = %start
  store i8 22, i8* %0, align 1, !dbg !321
  br label %bb40, !dbg !321

bb26:                                             ; preds = %start
  store i8 23, i8* %0, align 1, !dbg !322
  br label %bb40, !dbg !322

bb27:                                             ; preds = %start
  store i8 24, i8* %0, align 1, !dbg !323
  br label %bb40, !dbg !323

bb28:                                             ; preds = %start
  store i8 25, i8* %0, align 1, !dbg !324
  br label %bb40, !dbg !324

bb29:                                             ; preds = %start
  store i8 26, i8* %0, align 1, !dbg !325
  br label %bb40, !dbg !325

bb30:                                             ; preds = %start
  store i8 28, i8* %0, align 1, !dbg !326
  br label %bb40, !dbg !326

bb31:                                             ; preds = %start
  store i8 29, i8* %0, align 1, !dbg !327
  br label %bb40, !dbg !327

bb32:                                             ; preds = %start
  store i8 30, i8* %0, align 1, !dbg !328
  br label %bb40, !dbg !328

bb33:                                             ; preds = %start
  store i8 31, i8* %0, align 1, !dbg !329
  br label %bb40, !dbg !329

bb34:                                             ; preds = %start
  store i8 33, i8* %0, align 1, !dbg !330
  br label %bb40, !dbg !330

bb35:                                             ; preds = %start
  store i8 35, i8* %0, align 1, !dbg !331
  br label %bb40, !dbg !331

bb36:                                             ; preds = %start
  store i8 36, i8* %0, align 1, !dbg !332
  br label %bb40, !dbg !332

bb37:                                             ; preds = %start
  store i8 37, i8* %0, align 1, !dbg !333
  br label %bb40, !dbg !333

bb38:                                             ; preds = %start
  store i8 38, i8* %0, align 1, !dbg !334
  br label %bb40, !dbg !334

bb39:                                             ; preds = %start
  store i8 42, i8* %0, align 1, !dbg !335
  br label %bb40, !dbg !335

bb1:                                              ; preds = %start
  store i8 43, i8* %0, align 1, !dbg !336
  br label %bb40, !dbg !336

bb40:                                             ; preds = %bb3, %bb4, %bb5, %bb6, %bb7, %bb8, %bb9, %bb10, %bb11, %bb12, %bb13, %bb14, %bb15, %bb16, %bb17, %bb18, %bb19, %bb20, %bb21, %bb22, %bb23, %bb24, %bb25, %bb26, %bb27, %bb28, %bb29, %bb30, %bb31, %bb32, %bb33, %bb34, %bb35, %bb36, %bb37, %bb38, %bb39, %bb1
  %2 = load i8, i8* %0, align 1, !dbg !337
  ret i8 %2, !dbg !337
}

; cortex_m::asm::nop
; Function Attrs: inlinehint nounwind
define internal void @_ZN8cortex_m3asm3nop17he6e4dcc664e4aa97E() unnamed_addr #1 !dbg !338 {
start:
  call void @__nop() #10, !dbg !343
  br label %bb1, !dbg !343

bb1:                                              ; preds = %start
  ret void, !dbg !344
}

; locals::app::idle
; Function Attrs: noreturn nounwind
define internal void @_ZN6locals3app4idle17h10dbad5f387d0984E(i64* align 8 dereferenceable(8) %cx) unnamed_addr #2 !dbg !345 {
start:
  %_args.dbg.spill = alloca i32*, align 4
  %cx.dbg.spill = alloca i64*, align 4
  %_14 = alloca i32*, align 4
  %_13 = alloca [1 x { i8*, i32* }], align 4
  %_6 = alloca %"core::fmt::Arguments", align 4
  %local_to_idle = alloca i64*, align 4
  store i64* %cx, i64** %cx.dbg.spill, align 4
  call void @llvm.dbg.declare(metadata i64** %cx.dbg.spill, metadata !356, metadata !DIExpression()), !dbg !367
  call void @llvm.dbg.declare(metadata i64** %local_to_idle, metadata !357, metadata !DIExpression()), !dbg !368
  store i64* %cx, i64** %local_to_idle, align 4, !dbg !369
  %0 = load i64*, i64** %local_to_idle, align 4, !dbg !370, !nonnull !59
  %1 = load i64, i64* %0, align 8, !dbg !370
  %2 = call { i64, i1 } @llvm.sadd.with.overflow.i64(i64 %1, i64 1), !dbg !370
  %_3.0 = extractvalue { i64, i1 } %2, 0, !dbg !370
  %_3.1 = extractvalue { i64, i1 } %2, 1, !dbg !370
  %3 = call i1 @llvm.expect.i1(i1 %_3.1, i1 false), !dbg !370
  br i1 %3, label %panic, label %bb1, !dbg !370

bb1:                                              ; preds = %start
  %4 = load i64*, i64** %local_to_idle, align 4, !dbg !370, !nonnull !59
  store i64 %_3.0, i64* %4, align 8, !dbg !370
  %5 = bitcast i32** %_14 to i64***, !dbg !371
  store i64** %local_to_idle, i64*** %5, align 4, !dbg !371
  %_args = load i32*, i32** %_14, align 4, !dbg !371, !nonnull !59
  store i32* %_args, i32** %_args.dbg.spill, align 4, !dbg !371
  call void @llvm.dbg.declare(metadata i32** %_args.dbg.spill, metadata !359, metadata !DIExpression()), !dbg !372
  %_18 = bitcast i32* %_args to i64**, !dbg !372
; call core::fmt::ArgumentV1::new
  %6 = call { i8*, i32* } @_ZN4core3fmt10ArgumentV13new17h85113322f5b5e658E(i64** align 4 dereferenceable(4) %_18, i1 (i64**, %"core::fmt::Formatter"*)* nonnull @"_ZN52_$LT$$RF$mut$u20$T$u20$as$u20$core..fmt..Display$GT$3fmt17h50bf9aa690e1dd41E") #10, !dbg !372
  %_17.0 = extractvalue { i8*, i32* } %6, 0, !dbg !372
  %_17.1 = extractvalue { i8*, i32* } %6, 1, !dbg !372
  br label %bb2, !dbg !372

panic:                                            ; preds = %start
; call core::panicking::panic
  call void @_ZN4core9panicking5panic17h9e72682d8e5e8cf1E([0 x i8]* nonnull align 1 bitcast ([28 x i8]* @str.0 to [0 x i8]*), i32 28, %"core::panic::location::Location"* align 4 dereferenceable(16) bitcast (<{ i8*, [12 x i8] }>* @alloc171 to %"core::panic::location::Location"*)) #11, !dbg !370
  unreachable, !dbg !370

bb2:                                              ; preds = %bb1
  %7 = bitcast [1 x { i8*, i32* }]* %_13 to { i8*, i32* }*, !dbg !372
  %8 = getelementptr inbounds { i8*, i32* }, { i8*, i32* }* %7, i32 0, i32 0, !dbg !372
  store i8* %_17.0, i8** %8, align 4, !dbg !372
  %9 = getelementptr inbounds { i8*, i32* }, { i8*, i32* }* %7, i32 0, i32 1, !dbg !372
  store i32* %_17.1, i32** %9, align 4, !dbg !372
  %_10.0 = bitcast [1 x { i8*, i32* }]* %_13 to [0 x { i8*, i32* }]*, !dbg !371
; call core::fmt::Arguments::new_v1
  call void @_ZN4core3fmt9Arguments6new_v117hc132f62239bd6a9fE(%"core::fmt::Arguments"* noalias nocapture sret(%"core::fmt::Arguments") dereferenceable(24) %_6, [0 x { [0 x i8]*, i32 }]* nonnull align 4 bitcast (<{ i8*, [4 x i8], i8*, [4 x i8] }>* @alloc160 to [0 x { [0 x i8]*, i32 }]*), i32 2, [0 x { i8*, i32* }]* nonnull align 4 %_10.0, i32 1) #10, !dbg !371
  br label %bb3, !dbg !371

bb3:                                              ; preds = %bb2
; call cortex_m_semihosting::export::hstdout_fmt
  %_5 = call zeroext i1 @_ZN20cortex_m_semihosting6export11hstdout_fmt17h247612a662c736f1E(%"core::fmt::Arguments"* noalias nocapture dereferenceable(24) %_6) #10, !dbg !371
  br label %bb4, !dbg !371

bb4:                                              ; preds = %bb3
; call core::result::Result<T,E>::unwrap
  call void @"_ZN4core6result19Result$LT$T$C$E$GT$6unwrap17had281be05a095966E"(i1 zeroext %_5, %"core::panic::location::Location"* align 4 dereferenceable(16) bitcast (<{ i8*, [12 x i8] }>* @alloc173 to %"core::panic::location::Location"*)) #10, !dbg !371
  br label %bb5, !dbg !371

bb5:                                              ; preds = %bb4
; call cortex_m_semihosting::debug::exit
  call void @_ZN20cortex_m_semihosting5debug4exit17h63eb89992f0c26a5E(i1 zeroext false) #10, !dbg !373
  br label %bb6, !dbg !373

bb6:                                              ; preds = %bb6, %bb5
; call cortex_m::asm::nop
  call void @_ZN8cortex_m3asm3nop17he6e4dcc664e4aa97E() #10, !dbg !374
  br label %bb6, !dbg !374
}

; locals::app::foo
; Function Attrs: nounwind
define internal void @_ZN6locals3app3foo17ha55c0f8edfab0f06E(i64* align 8 dereferenceable(8) %cx) unnamed_addr #0 !dbg !375 {
start:
  %_args.dbg.spill = alloca i32*, align 4
  %cx.dbg.spill = alloca i64*, align 4
  %_14 = alloca i32*, align 4
  %_13 = alloca [1 x { i8*, i32* }], align 4
  %_6 = alloca %"core::fmt::Arguments", align 4
  %local_to_foo = alloca i64*, align 4
  store i64* %cx, i64** %cx.dbg.spill, align 4
  call void @llvm.dbg.declare(metadata i64** %cx.dbg.spill, metadata !385, metadata !DIExpression()), !dbg !391
  call void @llvm.dbg.declare(metadata i64** %local_to_foo, metadata !386, metadata !DIExpression()), !dbg !392
  store i64* %cx, i64** %local_to_foo, align 4, !dbg !393
  %0 = load i64*, i64** %local_to_foo, align 4, !dbg !394, !nonnull !59
  %1 = load i64, i64* %0, align 8, !dbg !394
  %2 = call { i64, i1 } @llvm.sadd.with.overflow.i64(i64 %1, i64 1), !dbg !394
  %_3.0 = extractvalue { i64, i1 } %2, 0, !dbg !394
  %_3.1 = extractvalue { i64, i1 } %2, 1, !dbg !394
  %3 = call i1 @llvm.expect.i1(i1 %_3.1, i1 false), !dbg !394
  br i1 %3, label %panic, label %bb1, !dbg !394

bb1:                                              ; preds = %start
  %4 = load i64*, i64** %local_to_foo, align 4, !dbg !394, !nonnull !59
  store i64 %_3.0, i64* %4, align 8, !dbg !394
  %5 = bitcast i32** %_14 to i64***, !dbg !395
  store i64** %local_to_foo, i64*** %5, align 4, !dbg !395
  %_args = load i32*, i32** %_14, align 4, !dbg !395, !nonnull !59
  store i32* %_args, i32** %_args.dbg.spill, align 4, !dbg !395
  call void @llvm.dbg.declare(metadata i32** %_args.dbg.spill, metadata !388, metadata !DIExpression()), !dbg !396
  %_18 = bitcast i32* %_args to i64**, !dbg !396
; call core::fmt::ArgumentV1::new
  %6 = call { i8*, i32* } @_ZN4core3fmt10ArgumentV13new17h85113322f5b5e658E(i64** align 4 dereferenceable(4) %_18, i1 (i64**, %"core::fmt::Formatter"*)* nonnull @"_ZN52_$LT$$RF$mut$u20$T$u20$as$u20$core..fmt..Display$GT$3fmt17h50bf9aa690e1dd41E") #10, !dbg !396
  %_17.0 = extractvalue { i8*, i32* } %6, 0, !dbg !396
  %_17.1 = extractvalue { i8*, i32* } %6, 1, !dbg !396
  br label %bb2, !dbg !396

panic:                                            ; preds = %start
; call core::panicking::panic
  call void @_ZN4core9panicking5panic17h9e72682d8e5e8cf1E([0 x i8]* nonnull align 1 bitcast ([28 x i8]* @str.0 to [0 x i8]*), i32 28, %"core::panic::location::Location"* align 4 dereferenceable(16) bitcast (<{ i8*, [12 x i8] }>* @alloc175 to %"core::panic::location::Location"*)) #11, !dbg !394
  unreachable, !dbg !394

bb2:                                              ; preds = %bb1
  %7 = bitcast [1 x { i8*, i32* }]* %_13 to { i8*, i32* }*, !dbg !396
  %8 = getelementptr inbounds { i8*, i32* }, { i8*, i32* }* %7, i32 0, i32 0, !dbg !396
  store i8* %_17.0, i8** %8, align 4, !dbg !396
  %9 = getelementptr inbounds { i8*, i32* }, { i8*, i32* }* %7, i32 0, i32 1, !dbg !396
  store i32* %_17.1, i32** %9, align 4, !dbg !396
  %_10.0 = bitcast [1 x { i8*, i32* }]* %_13 to [0 x { i8*, i32* }]*, !dbg !395
; call core::fmt::Arguments::new_v1
  call void @_ZN4core3fmt9Arguments6new_v117hc132f62239bd6a9fE(%"core::fmt::Arguments"* noalias nocapture sret(%"core::fmt::Arguments") dereferenceable(24) %_6, [0 x { [0 x i8]*, i32 }]* nonnull align 4 bitcast (<{ i8*, [4 x i8], i8*, [4 x i8] }>* @alloc121 to [0 x { [0 x i8]*, i32 }]*), i32 2, [0 x { i8*, i32* }]* nonnull align 4 %_10.0, i32 1) #10, !dbg !395
  br label %bb3, !dbg !395

bb3:                                              ; preds = %bb2
; call cortex_m_semihosting::export::hstdout_fmt
  %_5 = call zeroext i1 @_ZN20cortex_m_semihosting6export11hstdout_fmt17h247612a662c736f1E(%"core::fmt::Arguments"* noalias nocapture dereferenceable(24) %_6) #10, !dbg !395
  br label %bb4, !dbg !395

bb4:                                              ; preds = %bb3
; call core::result::Result<T,E>::unwrap
  call void @"_ZN4core6result19Result$LT$T$C$E$GT$6unwrap17had281be05a095966E"(i1 zeroext %_5, %"core::panic::location::Location"* align 4 dereferenceable(16) bitcast (<{ i8*, [12 x i8] }>* @alloc177 to %"core::panic::location::Location"*)) #10, !dbg !395
  br label %bb5, !dbg !395

bb5:                                              ; preds = %bb4
  ret void, !dbg !397
}

; locals::app::bar
; Function Attrs: nounwind
define internal void @_ZN6locals3app3bar17h3dfc1d35d287dc45E(i64* align 8 dereferenceable(8) %cx) unnamed_addr #0 !dbg !398 {
start:
  %_args.dbg.spill = alloca i32*, align 4
  %cx.dbg.spill = alloca i64*, align 4
  %_14 = alloca i32*, align 4
  %_13 = alloca [1 x { i8*, i32* }], align 4
  %_6 = alloca %"core::fmt::Arguments", align 4
  %local_to_bar = alloca i64*, align 4
  store i64* %cx, i64** %cx.dbg.spill, align 4
  call void @llvm.dbg.declare(metadata i64** %cx.dbg.spill, metadata !408, metadata !DIExpression()), !dbg !414
  call void @llvm.dbg.declare(metadata i64** %local_to_bar, metadata !409, metadata !DIExpression()), !dbg !415
  store i64* %cx, i64** %local_to_bar, align 4, !dbg !416
  %0 = load i64*, i64** %local_to_bar, align 4, !dbg !417, !nonnull !59
  %1 = load i64, i64* %0, align 8, !dbg !417
  %2 = call { i64, i1 } @llvm.sadd.with.overflow.i64(i64 %1, i64 1), !dbg !417
  %_3.0 = extractvalue { i64, i1 } %2, 0, !dbg !417
  %_3.1 = extractvalue { i64, i1 } %2, 1, !dbg !417
  %3 = call i1 @llvm.expect.i1(i1 %_3.1, i1 false), !dbg !417
  br i1 %3, label %panic, label %bb1, !dbg !417

bb1:                                              ; preds = %start
  %4 = load i64*, i64** %local_to_bar, align 4, !dbg !417, !nonnull !59
  store i64 %_3.0, i64* %4, align 8, !dbg !417
  %5 = bitcast i32** %_14 to i64***, !dbg !418
  store i64** %local_to_bar, i64*** %5, align 4, !dbg !418
  %_args = load i32*, i32** %_14, align 4, !dbg !418, !nonnull !59
  store i32* %_args, i32** %_args.dbg.spill, align 4, !dbg !418
  call void @llvm.dbg.declare(metadata i32** %_args.dbg.spill, metadata !411, metadata !DIExpression()), !dbg !419
  %_18 = bitcast i32* %_args to i64**, !dbg !419
; call core::fmt::ArgumentV1::new
  %6 = call { i8*, i32* } @_ZN4core3fmt10ArgumentV13new17h85113322f5b5e658E(i64** align 4 dereferenceable(4) %_18, i1 (i64**, %"core::fmt::Formatter"*)* nonnull @"_ZN52_$LT$$RF$mut$u20$T$u20$as$u20$core..fmt..Display$GT$3fmt17h50bf9aa690e1dd41E") #10, !dbg !419
  %_17.0 = extractvalue { i8*, i32* } %6, 0, !dbg !419
  %_17.1 = extractvalue { i8*, i32* } %6, 1, !dbg !419
  br label %bb2, !dbg !419

panic:                                            ; preds = %start
; call core::panicking::panic
  call void @_ZN4core9panicking5panic17h9e72682d8e5e8cf1E([0 x i8]* nonnull align 1 bitcast ([28 x i8]* @str.0 to [0 x i8]*), i32 28, %"core::panic::location::Location"* align 4 dereferenceable(16) bitcast (<{ i8*, [12 x i8] }>* @alloc179 to %"core::panic::location::Location"*)) #11, !dbg !417
  unreachable, !dbg !417

bb2:                                              ; preds = %bb1
  %7 = bitcast [1 x { i8*, i32* }]* %_13 to { i8*, i32* }*, !dbg !419
  %8 = getelementptr inbounds { i8*, i32* }, { i8*, i32* }* %7, i32 0, i32 0, !dbg !419
  store i8* %_17.0, i8** %8, align 4, !dbg !419
  %9 = getelementptr inbounds { i8*, i32* }, { i8*, i32* }* %7, i32 0, i32 1, !dbg !419
  store i32* %_17.1, i32** %9, align 4, !dbg !419
  %_10.0 = bitcast [1 x { i8*, i32* }]* %_13 to [0 x { i8*, i32* }]*, !dbg !418
; call core::fmt::Arguments::new_v1
  call void @_ZN4core3fmt9Arguments6new_v117hc132f62239bd6a9fE(%"core::fmt::Arguments"* noalias nocapture sret(%"core::fmt::Arguments") dereferenceable(24) %_6, [0 x { [0 x i8]*, i32 }]* nonnull align 4 bitcast (<{ i8*, [4 x i8], i8*, [4 x i8] }>* @alloc111 to [0 x { [0 x i8]*, i32 }]*), i32 2, [0 x { i8*, i32* }]* nonnull align 4 %_10.0, i32 1) #10, !dbg !418
  br label %bb3, !dbg !418

bb3:                                              ; preds = %bb2
; call cortex_m_semihosting::export::hstdout_fmt
  %_5 = call zeroext i1 @_ZN20cortex_m_semihosting6export11hstdout_fmt17h247612a662c736f1E(%"core::fmt::Arguments"* noalias nocapture dereferenceable(24) %_6) #10, !dbg !418
  br label %bb4, !dbg !418

bb4:                                              ; preds = %bb3
; call core::result::Result<T,E>::unwrap
  call void @"_ZN4core6result19Result$LT$T$C$E$GT$6unwrap17had281be05a095966E"(i1 zeroext %_5, %"core::panic::location::Location"* align 4 dereferenceable(16) bitcast (<{ i8*, [12 x i8] }>* @alloc181 to %"core::panic::location::Location"*)) #10, !dbg !418
  br label %bb5, !dbg !418

bb5:                                              ; preds = %bb4
  ret void, !dbg !420
}

; lm3s6965::Peripherals::steal
; Function Attrs: inlinehint nounwind
define internal void @_ZN8lm3s696511Peripherals5steal17h618f0739b52a798eE() unnamed_addr #1 !dbg !421 {
start:
  ret void, !dbg !425
}

; locals::app::__rtic_internal_foo_spawn
; Function Attrs: nounwind
define internal zeroext i1 @_ZN6locals3app25__rtic_internal_foo_spawn17hf95648dd5d6bc8a0E() unnamed_addr #0 !dbg !426 {
start:
  %self.dbg.spill.i3 = alloca %"core::cell::UnsafeCell<[core::mem::maybe_uninit::MaybeUninit<()>; 1]>"*, align 4
  %self.dbg.spill.i2 = alloca {}*, align 4
  %self.dbg.spill.i1 = alloca %"core::mem::maybe_uninit::MaybeUninit<()>"*, align 4
  %self.dbg.spill.i = alloca %"rtic::RacyCell<[core::mem::maybe_uninit::MaybeUninit<()>; 1]>"*, align 4
  %input.dbg.spill = alloca {}, align 1
  %_23 = alloca i8, align 1
  %_20 = alloca i8*, align 4
  %index = alloca i8, align 1
  %_2 = alloca { i8, i8 }, align 1
  %0 = alloca i8, align 1
  call void @llvm.dbg.declare(metadata {}* %input.dbg.spill, metadata !430, metadata !DIExpression()), !dbg !434
  call void @llvm.dbg.declare(metadata i8* %index, metadata !432, metadata !DIExpression()), !dbg !435
; call cortex_m::interrupt::free
  %1 = call { i8, i8 } @_ZN8cortex_m9interrupt4free17h6900db02a4e65978E() #10, !dbg !434
  store { i8, i8 } %1, { i8, i8 }* %_2, align 1, !dbg !434
  br label %bb1, !dbg !434

bb1:                                              ; preds = %start
  %2 = bitcast { i8, i8 }* %_2 to i8*, !dbg !434
  %3 = load i8, i8* %2, align 1, !dbg !434, !range !436
  %4 = trunc i8 %3 to i1, !dbg !434
  %_4 = zext i1 %4 to i32, !dbg !434
  %5 = icmp eq i32 %_4, 1, !dbg !434
  br i1 %5, label %bb2, label %bb10, !dbg !434

bb2:                                              ; preds = %bb1
  %6 = bitcast { i8, i8 }* %_2 to %"core::option::Option<u8>::Some"*, !dbg !434
  %7 = getelementptr inbounds %"core::option::Option<u8>::Some", %"core::option::Option<u8>::Some"* %6, i32 0, i32 1, !dbg !434
  %8 = load i8, i8* %7, align 1, !dbg !434
  store i8 %8, i8* %index, align 1, !dbg !434
  store %"rtic::RacyCell<[core::mem::maybe_uninit::MaybeUninit<()>; 1]>"* bitcast (<{ [0 x i8] }>* @_ZN6locals3app26__rtic_internal_foo_INPUTS17hdf9dc66c5136e5d7E to %"rtic::RacyCell<[core::mem::maybe_uninit::MaybeUninit<()>; 1]>"*), %"rtic::RacyCell<[core::mem::maybe_uninit::MaybeUninit<()>; 1]>"** %self.dbg.spill.i, align 4
  call void @llvm.dbg.declare(metadata %"rtic::RacyCell<[core::mem::maybe_uninit::MaybeUninit<()>; 1]>"** %self.dbg.spill.i, metadata !437, metadata !DIExpression()) #10, !dbg !445
  store %"core::cell::UnsafeCell<[core::mem::maybe_uninit::MaybeUninit<()>; 1]>"* bitcast (<{ [0 x i8] }>* @_ZN6locals3app26__rtic_internal_foo_INPUTS17hdf9dc66c5136e5d7E to %"core::cell::UnsafeCell<[core::mem::maybe_uninit::MaybeUninit<()>; 1]>"*), %"core::cell::UnsafeCell<[core::mem::maybe_uninit::MaybeUninit<()>; 1]>"** %self.dbg.spill.i3, align 4
  call void @llvm.dbg.declare(metadata %"core::cell::UnsafeCell<[core::mem::maybe_uninit::MaybeUninit<()>; 1]>"** %self.dbg.spill.i3, metadata !447, metadata !DIExpression()), !dbg !454
  br label %bb3, !dbg !434

bb10:                                             ; preds = %bb1
  store i8 1, i8* %0, align 1, !dbg !434
  br label %bb11, !dbg !434

bb11:                                             ; preds = %bb9, %bb10
  %9 = load i8, i8* %0, align 1, !dbg !456, !range !436
  %10 = trunc i8 %9 to i1, !dbg !456
  ret i1 %10, !dbg !456

bb3:                                              ; preds = %bb2
  %_10.0 = bitcast [1 x %"core::mem::maybe_uninit::MaybeUninit<()>"]* bitcast (<{ [0 x i8] }>* @_ZN6locals3app26__rtic_internal_foo_INPUTS17hdf9dc66c5136e5d7E to [1 x %"core::mem::maybe_uninit::MaybeUninit<()>"]*) to [0 x %"core::mem::maybe_uninit::MaybeUninit<()>"]*, !dbg !434
  %_17 = load i8, i8* %index, align 1, !dbg !434
; call core::convert::num::<impl core::convert::From<u8> for usize>::from
  %_16 = call i32 @"_ZN4core7convert3num65_$LT$impl$u20$core..convert..From$LT$u8$GT$$u20$for$u20$usize$GT$4from17h5a3358a42c13f974E"(i8 %_17) #10, !dbg !434
  br label %bb4, !dbg !434

bb4:                                              ; preds = %bb3
; call core::slice::<impl [T]>::get_unchecked_mut
  %_9 = call nonnull align 1 %"core::mem::maybe_uninit::MaybeUninit<()>"* @"_ZN4core5slice29_$LT$impl$u20$$u5b$T$u5d$$GT$17get_unchecked_mut17hcb783b7fcc0d5eb1E"([0 x %"core::mem::maybe_uninit::MaybeUninit<()>"]* nonnull align 1 %_10.0, i32 1, i32 %_16) #10, !dbg !434
  br label %bb5, !dbg !434

bb5:                                              ; preds = %bb4
  store %"core::mem::maybe_uninit::MaybeUninit<()>"* %_9, %"core::mem::maybe_uninit::MaybeUninit<()>"** %self.dbg.spill.i1, align 4
  call void @llvm.dbg.declare(metadata %"core::mem::maybe_uninit::MaybeUninit<()>"** %self.dbg.spill.i1, metadata !457, metadata !DIExpression()), !dbg !464
  %11 = bitcast %"core::mem::maybe_uninit::MaybeUninit<()>"* %_9 to {}*, !dbg !466
  br label %bb6, !dbg !434

bb6:                                              ; preds = %bb5
  store {}* %11, {}** %self.dbg.spill.i2, align 4
  call void @llvm.dbg.declare(metadata {}** %self.dbg.spill.i2, metadata !467, metadata !DIExpression()) #10, !dbg !476
  call void @llvm.dbg.declare(metadata {}* undef, metadata !475, metadata !DIExpression()) #10, !dbg !478
; call core::ptr::write
  call void @_ZN4core3ptr5write17h3411c4701a77cae5E({}* %11) #10, !dbg !479
  br label %bb7, !dbg !434

bb7:                                              ; preds = %bb6
  store i8* %index, i8** %_20, align 4, !dbg !434
  %12 = load i8*, i8** %_20, align 4, !dbg !434, !nonnull !59
; call cortex_m::interrupt::free
  call void @_ZN8cortex_m9interrupt4free17he76fbd21a9f7aec8E(i8* align 1 dereferenceable(1) %12) #10, !dbg !434
  br label %bb8, !dbg !434

bb8:                                              ; preds = %bb7
  store i8 5, i8* %_23, align 1, !dbg !480
  %13 = load i8, i8* %_23, align 1, !dbg !434, !range !297
; call rtic::pend
  call void @_ZN4rtic4pend17h9dbd054a9ea733f9E(i8 %13) #10, !dbg !434
  br label %bb9, !dbg !434

bb9:                                              ; preds = %bb8
  store i8 0, i8* %0, align 1, !dbg !434
  br label %bb11, !dbg !434
}

; locals::app::__rtic_internal_foo_spawn::{{closure}}
; Function Attrs: inlinehint nounwind
define internal { i8, i8 } @"_ZN6locals3app25__rtic_internal_foo_spawn28_$u7b$$u7b$closure$u7d$$u7d$17h0fbdbcbf10f46067E"(%"bare_metal::CriticalSection"* nonnull align 1 %_2) unnamed_addr #1 !dbg !481 {
start:
  %self.dbg.spill.i1 = alloca %"core::cell::UnsafeCell<heapless::spsc::Queue<u8, 2_usize>>"*, align 4
  %self.dbg.spill.i = alloca %"rtic::RacyCell<heapless::spsc::Queue<u8, 2_usize>>"*, align 4
  %_2.dbg.spill = alloca %"bare_metal::CriticalSection"*, align 4
  %_1.dbg.spill = alloca %"[closure@examples/locals.rs:10:1: 10:62].3", align 1
  call void @llvm.dbg.declare(metadata %"[closure@examples/locals.rs:10:1: 10:62].3"* %_1.dbg.spill, metadata !504, metadata !DIExpression()), !dbg !506
  store %"bare_metal::CriticalSection"* %_2, %"bare_metal::CriticalSection"** %_2.dbg.spill, align 4
  call void @llvm.dbg.declare(metadata %"bare_metal::CriticalSection"** %_2.dbg.spill, metadata !505, metadata !DIExpression()), !dbg !506
  store %"rtic::RacyCell<heapless::spsc::Queue<u8, 2_usize>>"* bitcast (<{ [12 x i8] }>* @_ZN6locals3app22__rtic_internal_foo_FQ17heb020d3b7041f04fE to %"rtic::RacyCell<heapless::spsc::Queue<u8, 2_usize>>"*), %"rtic::RacyCell<heapless::spsc::Queue<u8, 2_usize>>"** %self.dbg.spill.i, align 4
  call void @llvm.dbg.declare(metadata %"rtic::RacyCell<heapless::spsc::Queue<u8, 2_usize>>"** %self.dbg.spill.i, metadata !507, metadata !DIExpression()) #10, !dbg !513
  store %"core::cell::UnsafeCell<heapless::spsc::Queue<u8, 2_usize>>"* bitcast (<{ [12 x i8] }>* @_ZN6locals3app22__rtic_internal_foo_FQ17heb020d3b7041f04fE to %"core::cell::UnsafeCell<heapless::spsc::Queue<u8, 2_usize>>"*), %"core::cell::UnsafeCell<heapless::spsc::Queue<u8, 2_usize>>"** %self.dbg.spill.i1, align 4
  call void @llvm.dbg.declare(metadata %"core::cell::UnsafeCell<heapless::spsc::Queue<u8, 2_usize>>"** %self.dbg.spill.i1, metadata !515, metadata !DIExpression()), !dbg !521
  br label %bb1, !dbg !506

bb1:                                              ; preds = %start
; call heapless::spsc::Queue<T,_>::dequeue
  %0 = call { i8, i8 } @"_ZN8heapless4spsc18Queue$LT$T$C$_$GT$7dequeue17hbddbe69e01b0948fE"(%"heapless::spsc::Queue<u8, 2_usize>"* align 4 dereferenceable(12) bitcast (<{ [12 x i8] }>* @_ZN6locals3app22__rtic_internal_foo_FQ17heb020d3b7041f04fE to %"heapless::spsc::Queue<u8, 2_usize>"*)) #10, !dbg !506
  %1 = extractvalue { i8, i8 } %0, 0, !dbg !506
  %2 = trunc i8 %1 to i1, !dbg !506
  %3 = extractvalue { i8, i8 } %0, 1, !dbg !506
  br label %bb2, !dbg !506

bb2:                                              ; preds = %bb1
  %4 = zext i1 %2 to i8, !dbg !523
  %5 = insertvalue { i8, i8 } undef, i8 %4, 0, !dbg !523
  %6 = insertvalue { i8, i8 } %5, i8 %3, 1, !dbg !523
  ret { i8, i8 } %6, !dbg !523
}

; locals::app::__rtic_internal_foo_spawn::{{closure}}
; Function Attrs: inlinehint nounwind
define internal void @"_ZN6locals3app25__rtic_internal_foo_spawn28_$u7b$$u7b$closure$u7d$$u7d$17hce2f397cafa79609E"(i8* align 1 dereferenceable(1) %_1, %"bare_metal::CriticalSection"* nonnull align 1 %_2) unnamed_addr #1 !dbg !524 {
start:
  %self.dbg.spill.i1 = alloca %"core::cell::UnsafeCell<heapless::spsc::Queue<(app::P1_T, u8), 3_usize>>"*, align 4
  %self.dbg.spill.i = alloca %"rtic::RacyCell<heapless::spsc::Queue<(app::P1_T, u8), 3_usize>>"*, align 4
  %_2.dbg.spill = alloca %"bare_metal::CriticalSection"*, align 4
  %_1.dbg.spill = alloca i8*, align 4
  %_9 = alloca { i8, i8 }, align 1
  store i8* %_1, i8** %_1.dbg.spill, align 4
  %0 = load i8*, i8** %_1.dbg.spill, align 4, !nonnull !59
  call void @llvm.dbg.declare(metadata i8** %_1.dbg.spill, metadata !532, metadata !DIExpression(DW_OP_deref)), !dbg !534
  store %"bare_metal::CriticalSection"* %_2, %"bare_metal::CriticalSection"** %_2.dbg.spill, align 4
  call void @llvm.dbg.declare(metadata %"bare_metal::CriticalSection"** %_2.dbg.spill, metadata !533, metadata !DIExpression()), !dbg !534
  store %"rtic::RacyCell<heapless::spsc::Queue<(app::P1_T, u8), 3_usize>>"* bitcast (<{ [16 x i8] }>* @_ZN6locals3app21__rtic_internal_P1_RQ17h70e79590858a2cecE to %"rtic::RacyCell<heapless::spsc::Queue<(app::P1_T, u8), 3_usize>>"*), %"rtic::RacyCell<heapless::spsc::Queue<(app::P1_T, u8), 3_usize>>"** %self.dbg.spill.i, align 4
  call void @llvm.dbg.declare(metadata %"rtic::RacyCell<heapless::spsc::Queue<(app::P1_T, u8), 3_usize>>"** %self.dbg.spill.i, metadata !535, metadata !DIExpression()) #10, !dbg !541
  store %"core::cell::UnsafeCell<heapless::spsc::Queue<(app::P1_T, u8), 3_usize>>"* bitcast (<{ [16 x i8] }>* @_ZN6locals3app21__rtic_internal_P1_RQ17h70e79590858a2cecE to %"core::cell::UnsafeCell<heapless::spsc::Queue<(app::P1_T, u8), 3_usize>>"*), %"core::cell::UnsafeCell<heapless::spsc::Queue<(app::P1_T, u8), 3_usize>>"** %self.dbg.spill.i1, align 4
  call void @llvm.dbg.declare(metadata %"core::cell::UnsafeCell<heapless::spsc::Queue<(app::P1_T, u8), 3_usize>>"** %self.dbg.spill.i1, metadata !543, metadata !DIExpression()), !dbg !549
  br label %bb1, !dbg !534

bb1:                                              ; preds = %start
  %_10 = load i8, i8* %_1, align 1, !dbg !534
  %1 = bitcast { i8, i8 }* %_9 to i8*, !dbg !534
  store i8 1, i8* %1, align 1, !dbg !534
  %2 = getelementptr inbounds { i8, i8 }, { i8, i8 }* %_9, i32 0, i32 1, !dbg !534
  store i8 %_10, i8* %2, align 1, !dbg !534
  %3 = getelementptr inbounds { i8, i8 }, { i8, i8 }* %_9, i32 0, i32 0, !dbg !534
  %4 = load i8, i8* %3, align 1, !dbg !534, !range !436
  %5 = trunc i8 %4 to i1, !dbg !534
  %6 = getelementptr inbounds { i8, i8 }, { i8, i8 }* %_9, i32 0, i32 1, !dbg !534
  %7 = load i8, i8* %6, align 1, !dbg !534
; call heapless::spsc::Queue<T,_>::enqueue_unchecked
  call void @"_ZN8heapless4spsc18Queue$LT$T$C$_$GT$17enqueue_unchecked17ha419a43839953ab6E"(%"heapless::spsc::Queue<(app::P1_T, u8), 3_usize>"* align 4 dereferenceable(16) bitcast (<{ [16 x i8] }>* @_ZN6locals3app21__rtic_internal_P1_RQ17h70e79590858a2cecE to %"heapless::spsc::Queue<(app::P1_T, u8), 3_usize>"*), i1 zeroext %5, i8 %7) #10, !dbg !534
  br label %bb2, !dbg !534

bb2:                                              ; preds = %bb1
  ret void, !dbg !551
}

; <T as cortex_m::interrupt::InterruptNumber>::number
; Function Attrs: inlinehint nounwind
define internal i16 @"_ZN58_$LT$T$u20$as$u20$cortex_m..interrupt..InterruptNumber$GT$6number17h7a5d7a0fd28511f6E"(i8 %0) unnamed_addr #1 !dbg !552 {
start:
  %self = alloca i8, align 1
  store i8 %0, i8* %self, align 1
  call void @llvm.dbg.declare(metadata i8* %self, metadata !560, metadata !DIExpression()), !dbg !563
; call <lm3s6965::Interrupt as bare_metal::Nr>::nr
  %_2 = call i8 @"_ZN54_$LT$lm3s6965..Interrupt$u20$as$u20$bare_metal..Nr$GT$2nr17h9796bf85b9167b29E"(i8* align 1 dereferenceable(1) %self) #10, !dbg !564
  br label %bb1, !dbg !564

bb1:                                              ; preds = %start
  %1 = zext i8 %_2 to i16, !dbg !564
  ret i16 %1, !dbg !565
}

; cortex_m::interrupt::disable
; Function Attrs: inlinehint nounwind
define internal void @_ZN8cortex_m9interrupt7disable17hebd3846882b05121E() unnamed_addr #1 !dbg !566 {
start:
  call void @__cpsid() #10, !dbg !567
  br label %bb1, !dbg !567

bb1:                                              ; preds = %start
  ret void, !dbg !568
}

; cortex_m::interrupt::enable
; Function Attrs: inlinehint nounwind
define internal void @_ZN8cortex_m9interrupt6enable17h5a8c08841dc312b2E() unnamed_addr #1 !dbg !569 {
start:
  call void @__cpsie() #10, !dbg !570
  br label %bb1, !dbg !570

bb1:                                              ; preds = %start
  ret void, !dbg !571
}

; cortex_m::interrupt::free
; Function Attrs: inlinehint nounwind
define internal { i8, i8 } @_ZN8cortex_m9interrupt4free17h6900db02a4e65978E() unnamed_addr #1 !dbg !572 {
start:
  %r.dbg.spill = alloca { i8, i8 }, align 1
  %primask.dbg.spill = alloca i8, align 1
  %f.dbg.spill = alloca %"[closure@examples/locals.rs:10:1: 10:62].3", align 1
  %_8 = alloca %"bare_metal::CriticalSection", align 1
  %_5 = alloca i8*, align 4
  call void @llvm.dbg.declare(metadata %"[closure@examples/locals.rs:10:1: 10:62].3"* %f.dbg.spill, metadata !576, metadata !DIExpression()), !dbg !584
; call cortex_m::register::primask::read
  %primask = call zeroext i1 @_ZN8cortex_m8register7primask4read17he7f40456c7aa8a00E() #10, !dbg !585
  %0 = zext i1 %primask to i8, !dbg !585
  store i8 %0, i8* %primask.dbg.spill, align 1, !dbg !585
  call void @llvm.dbg.declare(metadata i8* %primask.dbg.spill, metadata !577, metadata !DIExpression()), !dbg !586
  br label %bb1, !dbg !585

bb1:                                              ; preds = %start
; call cortex_m::interrupt::disable
  call void @_ZN8cortex_m9interrupt7disable17hebd3846882b05121E() #10, !dbg !587
  br label %bb2, !dbg !587

bb2:                                              ; preds = %bb1
; call bare_metal::CriticalSection::new
  call void @_ZN10bare_metal15CriticalSection3new17h77ebf15fa45305c2E() #10, !dbg !588
  br label %bb3, !dbg !588

bb3:                                              ; preds = %bb2
  %1 = bitcast i8** %_5 to %"bare_metal::CriticalSection"**, !dbg !589
  store %"bare_metal::CriticalSection"* %_8, %"bare_metal::CriticalSection"** %1, align 4, !dbg !589
  %2 = load i8*, i8** %_5, align 4, !dbg !589, !nonnull !59
  %3 = bitcast i8* %2 to %"bare_metal::CriticalSection"*, !dbg !589
; call locals::app::__rtic_internal_foo_spawn::{{closure}}
  %4 = call { i8, i8 } @"_ZN6locals3app25__rtic_internal_foo_spawn28_$u7b$$u7b$closure$u7d$$u7d$17h0fbdbcbf10f46067E"(%"bare_metal::CriticalSection"* nonnull align 1 %3) #10, !dbg !589
  %5 = extractvalue { i8, i8 } %4, 0, !dbg !589
  %r.0 = trunc i8 %5 to i1, !dbg !589
  %r.1 = extractvalue { i8, i8 } %4, 1, !dbg !589
  %6 = getelementptr inbounds { i8, i8 }, { i8, i8 }* %r.dbg.spill, i32 0, i32 0, !dbg !589
  %7 = zext i1 %r.0 to i8, !dbg !589
  store i8 %7, i8* %6, align 1, !dbg !589
  %8 = getelementptr inbounds { i8, i8 }, { i8, i8 }* %r.dbg.spill, i32 0, i32 1, !dbg !589
  store i8 %r.1, i8* %8, align 1, !dbg !589
  call void @llvm.dbg.declare(metadata { i8, i8 }* %r.dbg.spill, metadata !579, metadata !DIExpression()), !dbg !590
  br label %bb4, !dbg !589

bb4:                                              ; preds = %bb3
; call cortex_m::register::primask::Primask::is_active
  %_10 = call zeroext i1 @_ZN8cortex_m8register7primask7Primask9is_active17h26a0e7131c940062E(i1 zeroext %primask) #10, !dbg !591
  br label %bb5, !dbg !591

bb5:                                              ; preds = %bb4
  br i1 %_10, label %bb6, label %bb7, !dbg !591

bb7:                                              ; preds = %bb6, %bb5
  %9 = zext i1 %r.0 to i8, !dbg !592
  %10 = insertvalue { i8, i8 } undef, i8 %9, 0, !dbg !592
  %11 = insertvalue { i8, i8 } %10, i8 %r.1, 1, !dbg !592
  ret { i8, i8 } %11, !dbg !592

bb6:                                              ; preds = %bb5
; call cortex_m::interrupt::enable
  call void @_ZN8cortex_m9interrupt6enable17h5a8c08841dc312b2E() #10, !dbg !593
  br label %bb7, !dbg !593
}

; cortex_m::interrupt::free
; Function Attrs: inlinehint nounwind
define internal { i8, i8 } @_ZN8cortex_m9interrupt4free17hcb8de0e5e31ca0b1E() unnamed_addr #1 !dbg !594 {
start:
  %r.dbg.spill = alloca { i8, i8 }, align 1
  %primask.dbg.spill = alloca i8, align 1
  %f.dbg.spill = alloca %"[closure@examples/locals.rs:10:1: 10:62].4", align 1
  %_8 = alloca %"bare_metal::CriticalSection", align 1
  %_5 = alloca i8*, align 4
  call void @llvm.dbg.declare(metadata %"[closure@examples/locals.rs:10:1: 10:62].4"* %f.dbg.spill, metadata !600, metadata !DIExpression()), !dbg !607
; call cortex_m::register::primask::read
  %primask = call zeroext i1 @_ZN8cortex_m8register7primask4read17he7f40456c7aa8a00E() #10, !dbg !608
  %0 = zext i1 %primask to i8, !dbg !608
  store i8 %0, i8* %primask.dbg.spill, align 1, !dbg !608
  call void @llvm.dbg.declare(metadata i8* %primask.dbg.spill, metadata !601, metadata !DIExpression()), !dbg !609
  br label %bb1, !dbg !608

bb1:                                              ; preds = %start
; call cortex_m::interrupt::disable
  call void @_ZN8cortex_m9interrupt7disable17hebd3846882b05121E() #10, !dbg !610
  br label %bb2, !dbg !610

bb2:                                              ; preds = %bb1
; call bare_metal::CriticalSection::new
  call void @_ZN10bare_metal15CriticalSection3new17h77ebf15fa45305c2E() #10, !dbg !611
  br label %bb3, !dbg !611

bb3:                                              ; preds = %bb2
  %1 = bitcast i8** %_5 to %"bare_metal::CriticalSection"**, !dbg !612
  store %"bare_metal::CriticalSection"* %_8, %"bare_metal::CriticalSection"** %1, align 4, !dbg !612
  %2 = load i8*, i8** %_5, align 4, !dbg !612, !nonnull !59
  %3 = bitcast i8* %2 to %"bare_metal::CriticalSection"*, !dbg !612
; call locals::app::__rtic_internal_bar_spawn::{{closure}}
  %4 = call { i8, i8 } @"_ZN6locals3app25__rtic_internal_bar_spawn28_$u7b$$u7b$closure$u7d$$u7d$17hf91bfa12477a85f6E"(%"bare_metal::CriticalSection"* nonnull align 1 %3) #10, !dbg !612
  %5 = extractvalue { i8, i8 } %4, 0, !dbg !612
  %r.0 = trunc i8 %5 to i1, !dbg !612
  %r.1 = extractvalue { i8, i8 } %4, 1, !dbg !612
  %6 = getelementptr inbounds { i8, i8 }, { i8, i8 }* %r.dbg.spill, i32 0, i32 0, !dbg !612
  %7 = zext i1 %r.0 to i8, !dbg !612
  store i8 %7, i8* %6, align 1, !dbg !612
  %8 = getelementptr inbounds { i8, i8 }, { i8, i8 }* %r.dbg.spill, i32 0, i32 1, !dbg !612
  store i8 %r.1, i8* %8, align 1, !dbg !612
  call void @llvm.dbg.declare(metadata { i8, i8 }* %r.dbg.spill, metadata !603, metadata !DIExpression()), !dbg !613
  br label %bb4, !dbg !612

bb4:                                              ; preds = %bb3
; call cortex_m::register::primask::Primask::is_active
  %_10 = call zeroext i1 @_ZN8cortex_m8register7primask7Primask9is_active17h26a0e7131c940062E(i1 zeroext %primask) #10, !dbg !614
  br label %bb5, !dbg !614

bb5:                                              ; preds = %bb4
  br i1 %_10, label %bb6, label %bb7, !dbg !614

bb7:                                              ; preds = %bb6, %bb5
  %9 = zext i1 %r.0 to i8, !dbg !615
  %10 = insertvalue { i8, i8 } undef, i8 %9, 0, !dbg !615
  %11 = insertvalue { i8, i8 } %10, i8 %r.1, 1, !dbg !615
  ret { i8, i8 } %11, !dbg !615

bb6:                                              ; preds = %bb5
; call cortex_m::interrupt::enable
  call void @_ZN8cortex_m9interrupt6enable17h5a8c08841dc312b2E() #10, !dbg !616
  br label %bb7, !dbg !616
}

; cortex_m::interrupt::free
; Function Attrs: inlinehint nounwind
define internal void @_ZN8cortex_m9interrupt4free17hceee848d0f9dcae4E(i8* align 1 dereferenceable(1) %f) unnamed_addr #1 !dbg !617 {
start:
  %primask.dbg.spill = alloca i8, align 1
  %f.dbg.spill = alloca i8*, align 4
  %r.dbg.spill = alloca {}, align 1
  %_8 = alloca %"bare_metal::CriticalSection", align 1
  %_5 = alloca i8*, align 4
  call void @llvm.dbg.declare(metadata {}* %r.dbg.spill, metadata !627, metadata !DIExpression()), !dbg !632
  store i8* %f, i8** %f.dbg.spill, align 4
  call void @llvm.dbg.declare(metadata i8** %f.dbg.spill, metadata !624, metadata !DIExpression()), !dbg !633
; call cortex_m::register::primask::read
  %primask = call zeroext i1 @_ZN8cortex_m8register7primask4read17he7f40456c7aa8a00E() #10, !dbg !634
  %0 = zext i1 %primask to i8, !dbg !634
  store i8 %0, i8* %primask.dbg.spill, align 1, !dbg !634
  call void @llvm.dbg.declare(metadata i8* %primask.dbg.spill, metadata !625, metadata !DIExpression()), !dbg !635
  br label %bb1, !dbg !634

bb1:                                              ; preds = %start
; call cortex_m::interrupt::disable
  call void @_ZN8cortex_m9interrupt7disable17hebd3846882b05121E() #10, !dbg !636
  br label %bb2, !dbg !636

bb2:                                              ; preds = %bb1
; call bare_metal::CriticalSection::new
  call void @_ZN10bare_metal15CriticalSection3new17h77ebf15fa45305c2E() #10, !dbg !637
  br label %bb3, !dbg !637

bb3:                                              ; preds = %bb2
  %1 = bitcast i8** %_5 to %"bare_metal::CriticalSection"**, !dbg !638
  store %"bare_metal::CriticalSection"* %_8, %"bare_metal::CriticalSection"** %1, align 4, !dbg !638
  %2 = load i8*, i8** %_5, align 4, !dbg !638, !nonnull !59
  %3 = bitcast i8* %2 to %"bare_metal::CriticalSection"*, !dbg !638
; call locals::app::__rtic_internal_bar_spawn::{{closure}}
  call void @"_ZN6locals3app25__rtic_internal_bar_spawn28_$u7b$$u7b$closure$u7d$$u7d$17h48b2b744e8040946E"(i8* align 1 dereferenceable(1) %f, %"bare_metal::CriticalSection"* nonnull align 1 %3) #10, !dbg !638
  br label %bb4, !dbg !638

bb4:                                              ; preds = %bb3
; call cortex_m::register::primask::Primask::is_active
  %_10 = call zeroext i1 @_ZN8cortex_m8register7primask7Primask9is_active17h26a0e7131c940062E(i1 zeroext %primask) #10, !dbg !639
  br label %bb5, !dbg !639

bb5:                                              ; preds = %bb4
  br i1 %_10, label %bb6, label %bb7, !dbg !639

bb7:                                              ; preds = %bb6, %bb5
  ret void, !dbg !640

bb6:                                              ; preds = %bb5
; call cortex_m::interrupt::enable
  call void @_ZN8cortex_m9interrupt6enable17h5a8c08841dc312b2E() #10, !dbg !641
  br label %bb7, !dbg !641
}

; cortex_m::interrupt::free
; Function Attrs: inlinehint nounwind
define internal void @_ZN8cortex_m9interrupt4free17he76fbd21a9f7aec8E(i8* align 1 dereferenceable(1) %f) unnamed_addr #1 !dbg !642 {
start:
  %primask.dbg.spill = alloca i8, align 1
  %f.dbg.spill = alloca i8*, align 4
  %r.dbg.spill = alloca {}, align 1
  %_8 = alloca %"bare_metal::CriticalSection", align 1
  %_5 = alloca i8*, align 4
  call void @llvm.dbg.declare(metadata {}* %r.dbg.spill, metadata !649, metadata !DIExpression()), !dbg !653
  store i8* %f, i8** %f.dbg.spill, align 4
  call void @llvm.dbg.declare(metadata i8** %f.dbg.spill, metadata !646, metadata !DIExpression()), !dbg !654
; call cortex_m::register::primask::read
  %primask = call zeroext i1 @_ZN8cortex_m8register7primask4read17he7f40456c7aa8a00E() #10, !dbg !655
  %0 = zext i1 %primask to i8, !dbg !655
  store i8 %0, i8* %primask.dbg.spill, align 1, !dbg !655
  call void @llvm.dbg.declare(metadata i8* %primask.dbg.spill, metadata !647, metadata !DIExpression()), !dbg !656
  br label %bb1, !dbg !655

bb1:                                              ; preds = %start
; call cortex_m::interrupt::disable
  call void @_ZN8cortex_m9interrupt7disable17hebd3846882b05121E() #10, !dbg !657
  br label %bb2, !dbg !657

bb2:                                              ; preds = %bb1
; call bare_metal::CriticalSection::new
  call void @_ZN10bare_metal15CriticalSection3new17h77ebf15fa45305c2E() #10, !dbg !658
  br label %bb3, !dbg !658

bb3:                                              ; preds = %bb2
  %1 = bitcast i8** %_5 to %"bare_metal::CriticalSection"**, !dbg !659
  store %"bare_metal::CriticalSection"* %_8, %"bare_metal::CriticalSection"** %1, align 4, !dbg !659
  %2 = load i8*, i8** %_5, align 4, !dbg !659, !nonnull !59
  %3 = bitcast i8* %2 to %"bare_metal::CriticalSection"*, !dbg !659
; call locals::app::__rtic_internal_foo_spawn::{{closure}}
  call void @"_ZN6locals3app25__rtic_internal_foo_spawn28_$u7b$$u7b$closure$u7d$$u7d$17hce2f397cafa79609E"(i8* align 1 dereferenceable(1) %f, %"bare_metal::CriticalSection"* nonnull align 1 %3) #10, !dbg !659
  br label %bb4, !dbg !659

bb4:                                              ; preds = %bb3
; call cortex_m::register::primask::Primask::is_active
  %_10 = call zeroext i1 @_ZN8cortex_m8register7primask7Primask9is_active17h26a0e7131c940062E(i1 zeroext %primask) #10, !dbg !660
  br label %bb5, !dbg !660

bb5:                                              ; preds = %bb4
  br i1 %_10, label %bb6, label %bb7, !dbg !660

bb7:                                              ; preds = %bb6, %bb5
  ret void, !dbg !661

bb6:                                              ; preds = %bb5
; call cortex_m::interrupt::enable
  call void @_ZN8cortex_m9interrupt6enable17h5a8c08841dc312b2E() #10, !dbg !662
  br label %bb7, !dbg !662
}

; locals::app::__rtic_internal_bar_spawn
; Function Attrs: nounwind
define internal zeroext i1 @_ZN6locals3app25__rtic_internal_bar_spawn17hbcc8391a9543253dE() unnamed_addr #0 !dbg !663 {
start:
  %self.dbg.spill.i3 = alloca %"core::cell::UnsafeCell<[core::mem::maybe_uninit::MaybeUninit<()>; 1]>"*, align 4
  %self.dbg.spill.i2 = alloca {}*, align 4
  %self.dbg.spill.i1 = alloca %"core::mem::maybe_uninit::MaybeUninit<()>"*, align 4
  %self.dbg.spill.i = alloca %"rtic::RacyCell<[core::mem::maybe_uninit::MaybeUninit<()>; 1]>"*, align 4
  %input.dbg.spill = alloca {}, align 1
  %_23 = alloca i8, align 1
  %_20 = alloca i8*, align 4
  %index = alloca i8, align 1
  %_2 = alloca { i8, i8 }, align 1
  %0 = alloca i8, align 1
  call void @llvm.dbg.declare(metadata {}* %input.dbg.spill, metadata !665, metadata !DIExpression()), !dbg !669
  call void @llvm.dbg.declare(metadata i8* %index, metadata !667, metadata !DIExpression()), !dbg !670
; call cortex_m::interrupt::free
  %1 = call { i8, i8 } @_ZN8cortex_m9interrupt4free17hcb8de0e5e31ca0b1E() #10, !dbg !669
  store { i8, i8 } %1, { i8, i8 }* %_2, align 1, !dbg !669
  br label %bb1, !dbg !669

bb1:                                              ; preds = %start
  %2 = bitcast { i8, i8 }* %_2 to i8*, !dbg !669
  %3 = load i8, i8* %2, align 1, !dbg !669, !range !436
  %4 = trunc i8 %3 to i1, !dbg !669
  %_4 = zext i1 %4 to i32, !dbg !669
  %5 = icmp eq i32 %_4, 1, !dbg !669
  br i1 %5, label %bb2, label %bb10, !dbg !669

bb2:                                              ; preds = %bb1
  %6 = bitcast { i8, i8 }* %_2 to %"core::option::Option<u8>::Some"*, !dbg !669
  %7 = getelementptr inbounds %"core::option::Option<u8>::Some", %"core::option::Option<u8>::Some"* %6, i32 0, i32 1, !dbg !669
  %8 = load i8, i8* %7, align 1, !dbg !669
  store i8 %8, i8* %index, align 1, !dbg !669
  store %"rtic::RacyCell<[core::mem::maybe_uninit::MaybeUninit<()>; 1]>"* bitcast (<{ [0 x i8] }>* @_ZN6locals3app26__rtic_internal_bar_INPUTS17h557822a7bd01f7e2E to %"rtic::RacyCell<[core::mem::maybe_uninit::MaybeUninit<()>; 1]>"*), %"rtic::RacyCell<[core::mem::maybe_uninit::MaybeUninit<()>; 1]>"** %self.dbg.spill.i, align 4
  call void @llvm.dbg.declare(metadata %"rtic::RacyCell<[core::mem::maybe_uninit::MaybeUninit<()>; 1]>"** %self.dbg.spill.i, metadata !437, metadata !DIExpression()) #10, !dbg !671
  store %"core::cell::UnsafeCell<[core::mem::maybe_uninit::MaybeUninit<()>; 1]>"* bitcast (<{ [0 x i8] }>* @_ZN6locals3app26__rtic_internal_bar_INPUTS17h557822a7bd01f7e2E to %"core::cell::UnsafeCell<[core::mem::maybe_uninit::MaybeUninit<()>; 1]>"*), %"core::cell::UnsafeCell<[core::mem::maybe_uninit::MaybeUninit<()>; 1]>"** %self.dbg.spill.i3, align 4
  call void @llvm.dbg.declare(metadata %"core::cell::UnsafeCell<[core::mem::maybe_uninit::MaybeUninit<()>; 1]>"** %self.dbg.spill.i3, metadata !447, metadata !DIExpression()), !dbg !673
  br label %bb3, !dbg !669

bb10:                                             ; preds = %bb1
  store i8 1, i8* %0, align 1, !dbg !669
  br label %bb11, !dbg !669

bb11:                                             ; preds = %bb9, %bb10
  %9 = load i8, i8* %0, align 1, !dbg !675, !range !436
  %10 = trunc i8 %9 to i1, !dbg !675
  ret i1 %10, !dbg !675

bb3:                                              ; preds = %bb2
  %_10.0 = bitcast [1 x %"core::mem::maybe_uninit::MaybeUninit<()>"]* bitcast (<{ [0 x i8] }>* @_ZN6locals3app26__rtic_internal_bar_INPUTS17h557822a7bd01f7e2E to [1 x %"core::mem::maybe_uninit::MaybeUninit<()>"]*) to [0 x %"core::mem::maybe_uninit::MaybeUninit<()>"]*, !dbg !669
  %_17 = load i8, i8* %index, align 1, !dbg !669
; call core::convert::num::<impl core::convert::From<u8> for usize>::from
  %_16 = call i32 @"_ZN4core7convert3num65_$LT$impl$u20$core..convert..From$LT$u8$GT$$u20$for$u20$usize$GT$4from17h5a3358a42c13f974E"(i8 %_17) #10, !dbg !669
  br label %bb4, !dbg !669

bb4:                                              ; preds = %bb3
; call core::slice::<impl [T]>::get_unchecked_mut
  %_9 = call nonnull align 1 %"core::mem::maybe_uninit::MaybeUninit<()>"* @"_ZN4core5slice29_$LT$impl$u20$$u5b$T$u5d$$GT$17get_unchecked_mut17hcb783b7fcc0d5eb1E"([0 x %"core::mem::maybe_uninit::MaybeUninit<()>"]* nonnull align 1 %_10.0, i32 1, i32 %_16) #10, !dbg !669
  br label %bb5, !dbg !669

bb5:                                              ; preds = %bb4
  store %"core::mem::maybe_uninit::MaybeUninit<()>"* %_9, %"core::mem::maybe_uninit::MaybeUninit<()>"** %self.dbg.spill.i1, align 4
  call void @llvm.dbg.declare(metadata %"core::mem::maybe_uninit::MaybeUninit<()>"** %self.dbg.spill.i1, metadata !457, metadata !DIExpression()), !dbg !676
  %11 = bitcast %"core::mem::maybe_uninit::MaybeUninit<()>"* %_9 to {}*, !dbg !678
  br label %bb6, !dbg !669

bb6:                                              ; preds = %bb5
  store {}* %11, {}** %self.dbg.spill.i2, align 4
  call void @llvm.dbg.declare(metadata {}** %self.dbg.spill.i2, metadata !467, metadata !DIExpression()) #10, !dbg !679
  call void @llvm.dbg.declare(metadata {}* undef, metadata !475, metadata !DIExpression()) #10, !dbg !681
; call core::ptr::write
  call void @_ZN4core3ptr5write17h3411c4701a77cae5E({}* %11) #10, !dbg !682
  br label %bb7, !dbg !669

bb7:                                              ; preds = %bb6
  store i8* %index, i8** %_20, align 4, !dbg !669
  %12 = load i8*, i8** %_20, align 4, !dbg !669, !nonnull !59
; call cortex_m::interrupt::free
  call void @_ZN8cortex_m9interrupt4free17hceee848d0f9dcae4E(i8* align 1 dereferenceable(1) %12) #10, !dbg !669
  br label %bb8, !dbg !669

bb8:                                              ; preds = %bb7
  store i8 5, i8* %_23, align 1, !dbg !683
  %13 = load i8, i8* %_23, align 1, !dbg !669, !range !297
; call rtic::pend
  call void @_ZN4rtic4pend17h9dbd054a9ea733f9E(i8 %13) #10, !dbg !669
  br label %bb9, !dbg !669

bb9:                                              ; preds = %bb8
  store i8 0, i8* %0, align 1, !dbg !669
  br label %bb11, !dbg !669
}

; locals::app::__rtic_internal_bar_spawn::{{closure}}
; Function Attrs: inlinehint nounwind
define internal { i8, i8 } @"_ZN6locals3app25__rtic_internal_bar_spawn28_$u7b$$u7b$closure$u7d$$u7d$17hf91bfa12477a85f6E"(%"bare_metal::CriticalSection"* nonnull align 1 %_2) unnamed_addr #1 !dbg !684 {
start:
  %self.dbg.spill.i1 = alloca %"core::cell::UnsafeCell<heapless::spsc::Queue<u8, 2_usize>>"*, align 4
  %self.dbg.spill.i = alloca %"rtic::RacyCell<heapless::spsc::Queue<u8, 2_usize>>"*, align 4
  %_2.dbg.spill = alloca %"bare_metal::CriticalSection"*, align 4
  %_1.dbg.spill = alloca %"[closure@examples/locals.rs:10:1: 10:62].4", align 1
  call void @llvm.dbg.declare(metadata %"[closure@examples/locals.rs:10:1: 10:62].4"* %_1.dbg.spill, metadata !688, metadata !DIExpression()), !dbg !690
  store %"bare_metal::CriticalSection"* %_2, %"bare_metal::CriticalSection"** %_2.dbg.spill, align 4
  call void @llvm.dbg.declare(metadata %"bare_metal::CriticalSection"** %_2.dbg.spill, metadata !689, metadata !DIExpression()), !dbg !690
  store %"rtic::RacyCell<heapless::spsc::Queue<u8, 2_usize>>"* bitcast (<{ [12 x i8] }>* @_ZN6locals3app22__rtic_internal_bar_FQ17h2ab7573cfd764f60E to %"rtic::RacyCell<heapless::spsc::Queue<u8, 2_usize>>"*), %"rtic::RacyCell<heapless::spsc::Queue<u8, 2_usize>>"** %self.dbg.spill.i, align 4
  call void @llvm.dbg.declare(metadata %"rtic::RacyCell<heapless::spsc::Queue<u8, 2_usize>>"** %self.dbg.spill.i, metadata !507, metadata !DIExpression()) #10, !dbg !691
  store %"core::cell::UnsafeCell<heapless::spsc::Queue<u8, 2_usize>>"* bitcast (<{ [12 x i8] }>* @_ZN6locals3app22__rtic_internal_bar_FQ17h2ab7573cfd764f60E to %"core::cell::UnsafeCell<heapless::spsc::Queue<u8, 2_usize>>"*), %"core::cell::UnsafeCell<heapless::spsc::Queue<u8, 2_usize>>"** %self.dbg.spill.i1, align 4
  call void @llvm.dbg.declare(metadata %"core::cell::UnsafeCell<heapless::spsc::Queue<u8, 2_usize>>"** %self.dbg.spill.i1, metadata !515, metadata !DIExpression()), !dbg !693
  br label %bb1, !dbg !690

bb1:                                              ; preds = %start
; call heapless::spsc::Queue<T,_>::dequeue
  %0 = call { i8, i8 } @"_ZN8heapless4spsc18Queue$LT$T$C$_$GT$7dequeue17hbddbe69e01b0948fE"(%"heapless::spsc::Queue<u8, 2_usize>"* align 4 dereferenceable(12) bitcast (<{ [12 x i8] }>* @_ZN6locals3app22__rtic_internal_bar_FQ17h2ab7573cfd764f60E to %"heapless::spsc::Queue<u8, 2_usize>"*)) #10, !dbg !690
  %1 = extractvalue { i8, i8 } %0, 0, !dbg !690
  %2 = trunc i8 %1 to i1, !dbg !690
  %3 = extractvalue { i8, i8 } %0, 1, !dbg !690
  br label %bb2, !dbg !690

bb2:                                              ; preds = %bb1
  %4 = zext i1 %2 to i8, !dbg !695
  %5 = insertvalue { i8, i8 } undef, i8 %4, 0, !dbg !695
  %6 = insertvalue { i8, i8 } %5, i8 %3, 1, !dbg !695
  ret { i8, i8 } %6, !dbg !695
}

; locals::app::__rtic_internal_bar_spawn::{{closure}}
; Function Attrs: inlinehint nounwind
define internal void @"_ZN6locals3app25__rtic_internal_bar_spawn28_$u7b$$u7b$closure$u7d$$u7d$17h48b2b744e8040946E"(i8* align 1 dereferenceable(1) %_1, %"bare_metal::CriticalSection"* nonnull align 1 %_2) unnamed_addr #1 !dbg !696 {
start:
  %self.dbg.spill.i1 = alloca %"core::cell::UnsafeCell<heapless::spsc::Queue<(app::P1_T, u8), 3_usize>>"*, align 4
  %self.dbg.spill.i = alloca %"rtic::RacyCell<heapless::spsc::Queue<(app::P1_T, u8), 3_usize>>"*, align 4
  %_2.dbg.spill = alloca %"bare_metal::CriticalSection"*, align 4
  %_1.dbg.spill = alloca i8*, align 4
  %_9 = alloca { i8, i8 }, align 1
  store i8* %_1, i8** %_1.dbg.spill, align 4
  %0 = load i8*, i8** %_1.dbg.spill, align 4, !nonnull !59
  call void @llvm.dbg.declare(metadata i8** %_1.dbg.spill, metadata !700, metadata !DIExpression(DW_OP_deref)), !dbg !702
  store %"bare_metal::CriticalSection"* %_2, %"bare_metal::CriticalSection"** %_2.dbg.spill, align 4
  call void @llvm.dbg.declare(metadata %"bare_metal::CriticalSection"** %_2.dbg.spill, metadata !701, metadata !DIExpression()), !dbg !702
  store %"rtic::RacyCell<heapless::spsc::Queue<(app::P1_T, u8), 3_usize>>"* bitcast (<{ [16 x i8] }>* @_ZN6locals3app21__rtic_internal_P1_RQ17h70e79590858a2cecE to %"rtic::RacyCell<heapless::spsc::Queue<(app::P1_T, u8), 3_usize>>"*), %"rtic::RacyCell<heapless::spsc::Queue<(app::P1_T, u8), 3_usize>>"** %self.dbg.spill.i, align 4
  call void @llvm.dbg.declare(metadata %"rtic::RacyCell<heapless::spsc::Queue<(app::P1_T, u8), 3_usize>>"** %self.dbg.spill.i, metadata !535, metadata !DIExpression()) #10, !dbg !703
  store %"core::cell::UnsafeCell<heapless::spsc::Queue<(app::P1_T, u8), 3_usize>>"* bitcast (<{ [16 x i8] }>* @_ZN6locals3app21__rtic_internal_P1_RQ17h70e79590858a2cecE to %"core::cell::UnsafeCell<heapless::spsc::Queue<(app::P1_T, u8), 3_usize>>"*), %"core::cell::UnsafeCell<heapless::spsc::Queue<(app::P1_T, u8), 3_usize>>"** %self.dbg.spill.i1, align 4
  call void @llvm.dbg.declare(metadata %"core::cell::UnsafeCell<heapless::spsc::Queue<(app::P1_T, u8), 3_usize>>"** %self.dbg.spill.i1, metadata !543, metadata !DIExpression()), !dbg !705
  br label %bb1, !dbg !702

bb1:                                              ; preds = %start
  %_10 = load i8, i8* %_1, align 1, !dbg !702
  %1 = bitcast { i8, i8 }* %_9 to i8*, !dbg !702
  store i8 0, i8* %1, align 1, !dbg !702
  %2 = getelementptr inbounds { i8, i8 }, { i8, i8 }* %_9, i32 0, i32 1, !dbg !702
  store i8 %_10, i8* %2, align 1, !dbg !702
  %3 = getelementptr inbounds { i8, i8 }, { i8, i8 }* %_9, i32 0, i32 0, !dbg !702
  %4 = load i8, i8* %3, align 1, !dbg !702, !range !436
  %5 = trunc i8 %4 to i1, !dbg !702
  %6 = getelementptr inbounds { i8, i8 }, { i8, i8 }* %_9, i32 0, i32 1, !dbg !702
  %7 = load i8, i8* %6, align 1, !dbg !702
; call heapless::spsc::Queue<T,_>::enqueue_unchecked
  call void @"_ZN8heapless4spsc18Queue$LT$T$C$_$GT$17enqueue_unchecked17ha419a43839953ab6E"(%"heapless::spsc::Queue<(app::P1_T, u8), 3_usize>"* align 4 dereferenceable(16) bitcast (<{ [16 x i8] }>* @_ZN6locals3app21__rtic_internal_P1_RQ17h70e79590858a2cecE to %"heapless::spsc::Queue<(app::P1_T, u8), 3_usize>"*), i1 zeroext %5, i8 %7) #10, !dbg !702
  br label %bb2, !dbg !702

bb2:                                              ; preds = %bb1
  ret void, !dbg !707
}

; Function Attrs: nounwind
define dso_local void @UART0() unnamed_addr #0 !dbg !708 {
start:
  %priority.dbg.spill.i = alloca i8, align 1
  store i8 1, i8* %priority.dbg.spill.i, align 1
  call void @llvm.dbg.declare(metadata i8* %priority.dbg.spill.i, metadata !709, metadata !DIExpression()) #10, !dbg !723
  call void @llvm.dbg.declare(metadata %"[closure@examples/locals.rs:10:1: 10:62].5"* undef, metadata !718, metadata !DIExpression()) #10, !dbg !725
; call locals::app::UART0::{{closure}}
  call void @"_ZN6locals3app5UART028_$u7b$$u7b$closure$u7d$$u7d$17h03af6aeda782247bE"() #10, !dbg !726
; call cortex_m::register::basepri::write
  call void @_ZN8cortex_m8register7basepri5write17h8c83f3cc5950a711E(i8 0) #10, !dbg !727
  br label %bb1, !dbg !728

bb1:                                              ; preds = %start
  ret void, !dbg !729
}

; rtic::export::logical2hw
; Function Attrs: inlinehint nounwind
define internal i8 @_ZN4rtic6export10logical2hw17h210e62a82e639146E(i8 %logical, i8 %nvic_prio_bits) unnamed_addr #1 !dbg !730 {
start:
  %nvic_prio_bits.dbg.spill = alloca i8, align 1
  %logical.dbg.spill = alloca i8, align 1
  store i8 %logical, i8* %logical.dbg.spill, align 1
  call void @llvm.dbg.declare(metadata i8* %logical.dbg.spill, metadata !734, metadata !DIExpression()), !dbg !736
  store i8 %nvic_prio_bits, i8* %nvic_prio_bits.dbg.spill, align 1
  call void @llvm.dbg.declare(metadata i8* %nvic_prio_bits.dbg.spill, metadata !735, metadata !DIExpression()), !dbg !737
  %0 = and i8 %nvic_prio_bits, -8, !dbg !738
  %_6.1 = icmp ne i8 %0, 0, !dbg !738
  %1 = and i8 %nvic_prio_bits, 7, !dbg !738
  %_6.0 = shl i8 1, %1, !dbg !738
  %2 = call i1 @llvm.expect.i1(i1 %_6.1, i1 false), !dbg !738
  br i1 %2, label %panic, label %bb1, !dbg !738

bb1:                                              ; preds = %start
  %3 = call { i8, i1 } @llvm.usub.with.overflow.i8(i8 %_6.0, i8 %logical), !dbg !739
  %_8.0 = extractvalue { i8, i1 } %3, 0, !dbg !739
  %_8.1 = extractvalue { i8, i1 } %3, 1, !dbg !739
  %4 = call i1 @llvm.expect.i1(i1 %_8.1, i1 false), !dbg !739
  br i1 %4, label %panic1, label %bb2, !dbg !739

panic:                                            ; preds = %start
; call core::panicking::panic
  call void @_ZN4core9panicking5panic17h9e72682d8e5e8cf1E([0 x i8]* nonnull align 1 bitcast ([35 x i8]* @str.1 to [0 x i8]*), i32 35, %"core::panic::location::Location"* align 4 dereferenceable(16) bitcast (<{ i8*, [12 x i8] }>* @alloc183 to %"core::panic::location::Location"*)) #11, !dbg !738
  unreachable, !dbg !738

bb2:                                              ; preds = %bb1
  %5 = call { i8, i1 } @llvm.usub.with.overflow.i8(i8 8, i8 %nvic_prio_bits), !dbg !740
  %_11.0 = extractvalue { i8, i1 } %5, 0, !dbg !740
  %_11.1 = extractvalue { i8, i1 } %5, 1, !dbg !740
  %6 = call i1 @llvm.expect.i1(i1 %_11.1, i1 false), !dbg !740
  br i1 %6, label %panic2, label %bb3, !dbg !740

panic1:                                           ; preds = %bb1
; call core::panicking::panic
  call void @_ZN4core9panicking5panic17h9e72682d8e5e8cf1E([0 x i8]* nonnull align 1 bitcast ([33 x i8]* @str.2 to [0 x i8]*), i32 33, %"core::panic::location::Location"* align 4 dereferenceable(16) bitcast (<{ i8*, [12 x i8] }>* @alloc185 to %"core::panic::location::Location"*)) #11, !dbg !739
  unreachable, !dbg !739

bb3:                                              ; preds = %bb2
  %7 = and i8 %_11.0, -8, !dbg !739
  %_12.1 = icmp ne i8 %7, 0, !dbg !739
  %8 = and i8 %_11.0, 7, !dbg !739
  %_12.0 = shl i8 %_8.0, %8, !dbg !739
  %9 = call i1 @llvm.expect.i1(i1 %_12.1, i1 false), !dbg !739
  br i1 %9, label %panic3, label %bb4, !dbg !739

panic2:                                           ; preds = %bb2
; call core::panicking::panic
  call void @_ZN4core9panicking5panic17h9e72682d8e5e8cf1E([0 x i8]* nonnull align 1 bitcast ([33 x i8]* @str.2 to [0 x i8]*), i32 33, %"core::panic::location::Location"* align 4 dereferenceable(16) bitcast (<{ i8*, [12 x i8] }>* @alloc187 to %"core::panic::location::Location"*)) #11, !dbg !740
  unreachable, !dbg !740

bb4:                                              ; preds = %bb3
  ret i8 %_12.0, !dbg !741

panic3:                                           ; preds = %bb3
; call core::panicking::panic
  call void @_ZN4core9panicking5panic17h9e72682d8e5e8cf1E([0 x i8]* nonnull align 1 bitcast ([35 x i8]* @str.1 to [0 x i8]*), i32 35, %"core::panic::location::Location"* align 4 dereferenceable(16) bitcast (<{ i8*, [12 x i8] }>* @alloc185 to %"core::panic::location::Location"*)) #11, !dbg !739
  unreachable, !dbg !739
}

; locals::app::UART0::{{closure}}
; Function Attrs: inlinehint nounwind
define internal void @"_ZN6locals3app5UART028_$u7b$$u7b$closure$u7d$$u7d$17h03af6aeda782247bE"() unnamed_addr #1 !dbg !742 {
start:
  %self.dbg.spill.i26 = alloca i64*, align 4
  %self.dbg.spill.i25 = alloca i64*, align 4
  %self.dbg.spill.i24 = alloca %"core::cell::UnsafeCell<heapless::spsc::Queue<u8, 2_usize>>"*, align 4
  %self.dbg.spill.i23 = alloca %"core::cell::UnsafeCell<heapless::spsc::Queue<u8, 2_usize>>"*, align 4
  %self.dbg.spill.i22 = alloca %"core::cell::UnsafeCell<heapless::spsc::Queue<(app::P1_T, u8), 3_usize>>"*, align 4
  %self.dbg.spill.i21 = alloca %"core::cell::UnsafeCell<[core::mem::maybe_uninit::MaybeUninit<()>; 1]>"*, align 4
  %self.dbg.spill.i20 = alloca %"core::cell::UnsafeCell<[core::mem::maybe_uninit::MaybeUninit<()>; 1]>"*, align 4
  %self.dbg.spill.i19 = alloca i64*, align 4
  %self.dbg.spill.i18 = alloca i64*, align 4
  %self.dbg.spill.i17 = alloca %"core::mem::maybe_uninit::MaybeUninit<()>"*, align 4
  %self.dbg.spill.i16 = alloca %"core::mem::maybe_uninit::MaybeUninit<()>"*, align 4
  %self.dbg.spill.i14 = alloca %"rtic::RacyCell<[core::mem::maybe_uninit::MaybeUninit<()>; 1]>"*, align 4
  %self.dbg.spill.i13 = alloca %"rtic::RacyCell<[core::mem::maybe_uninit::MaybeUninit<()>; 1]>"*, align 4
  %self.dbg.spill.i12 = alloca i64*, align 4
  %self.dbg.spill.i11 = alloca i64*, align 4
  %self.dbg.spill.i10 = alloca %"rtic::RacyCell<heapless::spsc::Queue<u8, 2_usize>>"*, align 4
  %self.dbg.spill.i9 = alloca %"rtic::RacyCell<heapless::spsc::Queue<u8, 2_usize>>"*, align 4
  %self.dbg.spill.i = alloca %"rtic::RacyCell<heapless::spsc::Queue<(app::P1_T, u8), 3_usize>>"*, align 4
  %0 = alloca i64*, align 4
  %1 = alloca i64*, align 4
  %value.dbg.spill.i5 = alloca i8, align 1
  %2 = alloca i8, align 1
  %value.dbg.spill.i = alloca i8, align 1
  %3 = alloca i8, align 1
  %priority.dbg.spill.i2 = alloca i8*, align 4
  %4 = alloca i64*, align 4
  %priority.dbg.spill.i = alloca i8*, align 4
  %5 = alloca i64*, align 4
  %priority.dbg.spill1 = alloca i8*, align 4
  %priority.dbg.spill = alloca i8*, align 4
  %index.dbg.spill = alloca i8, align 1
  %_1.dbg.spill = alloca %"[closure@examples/locals.rs:10:1: 10:62].5", align 1
  %_62 = alloca i8, align 1
  %_54 = alloca { i32*, i32* }, align 4
  %_37 = alloca i8, align 1
  %_29 = alloca { i32*, i32* }, align 4
  %task = alloca i8, align 1
  %_5 = alloca { i32*, i32* }, align 4
  %_3 = alloca { i8, i8 }, align 1
  call void @llvm.dbg.declare(metadata %"[closure@examples/locals.rs:10:1: 10:62].5"* %_1.dbg.spill, metadata !763, metadata !DIExpression()), !dbg !764
  call void @llvm.dbg.declare(metadata i8* %task, metadata !746, metadata !DIExpression()), !dbg !765
  br label %bb1, !dbg !764

bb1:                                              ; preds = %bb18, %bb28, %start
  store %"rtic::RacyCell<heapless::spsc::Queue<(app::P1_T, u8), 3_usize>>"* bitcast (<{ [16 x i8] }>* @_ZN6locals3app21__rtic_internal_P1_RQ17h70e79590858a2cecE to %"rtic::RacyCell<heapless::spsc::Queue<(app::P1_T, u8), 3_usize>>"*), %"rtic::RacyCell<heapless::spsc::Queue<(app::P1_T, u8), 3_usize>>"** %self.dbg.spill.i, align 4
  call void @llvm.dbg.declare(metadata %"rtic::RacyCell<heapless::spsc::Queue<(app::P1_T, u8), 3_usize>>"** %self.dbg.spill.i, metadata !535, metadata !DIExpression()) #10, !dbg !766
  store %"core::cell::UnsafeCell<heapless::spsc::Queue<(app::P1_T, u8), 3_usize>>"* bitcast (<{ [16 x i8] }>* @_ZN6locals3app21__rtic_internal_P1_RQ17h70e79590858a2cecE to %"core::cell::UnsafeCell<heapless::spsc::Queue<(app::P1_T, u8), 3_usize>>"*), %"core::cell::UnsafeCell<heapless::spsc::Queue<(app::P1_T, u8), 3_usize>>"** %self.dbg.spill.i22, align 4
  call void @llvm.dbg.declare(metadata %"core::cell::UnsafeCell<heapless::spsc::Queue<(app::P1_T, u8), 3_usize>>"** %self.dbg.spill.i22, metadata !543, metadata !DIExpression()), !dbg !768
  br label %bb2, !dbg !764

bb2:                                              ; preds = %bb1
; call heapless::spsc::Queue<T,_>::split
  %6 = call { i32*, i32* } @"_ZN8heapless4spsc18Queue$LT$T$C$_$GT$5split17h4fd76e368a9e3d31E"(%"heapless::spsc::Queue<(app::P1_T, u8), 3_usize>"* align 4 dereferenceable(16) bitcast (<{ [16 x i8] }>* @_ZN6locals3app21__rtic_internal_P1_RQ17h70e79590858a2cecE to %"heapless::spsc::Queue<(app::P1_T, u8), 3_usize>"*)) #10, !dbg !764
  store { i32*, i32* } %6, { i32*, i32* }* %_5, align 4, !dbg !764
  br label %bb3, !dbg !764

bb3:                                              ; preds = %bb2
  %_4 = getelementptr inbounds { i32*, i32* }, { i32*, i32* }* %_5, i32 0, i32 1, !dbg !764
; call heapless::spsc::Consumer<T,_>::dequeue
  %7 = call { i8, i8 } @"_ZN8heapless4spsc21Consumer$LT$T$C$_$GT$7dequeue17h4076781cd95e852cE"(i32** align 4 dereferenceable(4) %_4) #10, !dbg !764
  store { i8, i8 } %7, { i8, i8 }* %_3, align 1, !dbg !764
  br label %bb4, !dbg !764

bb4:                                              ; preds = %bb3
  %8 = bitcast { i8, i8 }* %_3 to i8*, !dbg !764
  %9 = load i8, i8* %8, align 1, !dbg !764, !range !770
  %10 = sub i8 %9, 2, !dbg !764
  %11 = icmp eq i8 %10, 0, !dbg !764
  %_11 = select i1 %11, i32 0, i32 1, !dbg !764
  %12 = icmp eq i32 %_11, 1, !dbg !764
  br i1 %12, label %bb5, label %bb29, !dbg !764

bb5:                                              ; preds = %bb4
  %13 = bitcast { i8, i8 }* %_3 to i8*, !dbg !764
  %14 = load i8, i8* %13, align 1, !dbg !764, !range !436
  %15 = trunc i8 %14 to i1, !dbg !764
  %16 = zext i1 %15 to i8, !dbg !764
  store i8 %16, i8* %task, align 1, !dbg !764
  %17 = getelementptr inbounds { i8, i8 }, { i8, i8 }* %_3, i32 0, i32 1, !dbg !764
  %index = load i8, i8* %17, align 1, !dbg !764
  store i8 %index, i8* %index.dbg.spill, align 1, !dbg !764
  call void @llvm.dbg.declare(metadata i8* %index.dbg.spill, metadata !748, metadata !DIExpression()), !dbg !765
  %18 = load i8, i8* %task, align 1, !dbg !764, !range !436
  %19 = trunc i8 %18 to i1, !dbg !764
  %_14 = zext i1 %19 to i32, !dbg !764
  switch i32 %_14, label %bb7 [
    i32 0, label %bb8
    i32 1, label %bb6
  ], !dbg !764

bb29:                                             ; preds = %bb4
  ret void, !dbg !771

bb7:                                              ; preds = %bb5
  unreachable, !dbg !764

bb8:                                              ; preds = %bb5
  store %"rtic::RacyCell<[core::mem::maybe_uninit::MaybeUninit<()>; 1]>"* bitcast (<{ [0 x i8] }>* @_ZN6locals3app26__rtic_internal_bar_INPUTS17h557822a7bd01f7e2E to %"rtic::RacyCell<[core::mem::maybe_uninit::MaybeUninit<()>; 1]>"*), %"rtic::RacyCell<[core::mem::maybe_uninit::MaybeUninit<()>; 1]>"** %self.dbg.spill.i13, align 4
  call void @llvm.dbg.declare(metadata %"rtic::RacyCell<[core::mem::maybe_uninit::MaybeUninit<()>; 1]>"** %self.dbg.spill.i13, metadata !772, metadata !DIExpression()) #10, !dbg !778
  store %"core::cell::UnsafeCell<[core::mem::maybe_uninit::MaybeUninit<()>; 1]>"* bitcast (<{ [0 x i8] }>* @_ZN6locals3app26__rtic_internal_bar_INPUTS17h557822a7bd01f7e2E to %"core::cell::UnsafeCell<[core::mem::maybe_uninit::MaybeUninit<()>; 1]>"*), %"core::cell::UnsafeCell<[core::mem::maybe_uninit::MaybeUninit<()>; 1]>"** %self.dbg.spill.i21, align 4
  call void @llvm.dbg.declare(metadata %"core::cell::UnsafeCell<[core::mem::maybe_uninit::MaybeUninit<()>; 1]>"** %self.dbg.spill.i21, metadata !447, metadata !DIExpression()), !dbg !780
  br label %bb9, !dbg !764

bb6:                                              ; preds = %bb5
  store %"rtic::RacyCell<[core::mem::maybe_uninit::MaybeUninit<()>; 1]>"* bitcast (<{ [0 x i8] }>* @_ZN6locals3app26__rtic_internal_foo_INPUTS17hdf9dc66c5136e5d7E to %"rtic::RacyCell<[core::mem::maybe_uninit::MaybeUninit<()>; 1]>"*), %"rtic::RacyCell<[core::mem::maybe_uninit::MaybeUninit<()>; 1]>"** %self.dbg.spill.i14, align 4
  call void @llvm.dbg.declare(metadata %"rtic::RacyCell<[core::mem::maybe_uninit::MaybeUninit<()>; 1]>"** %self.dbg.spill.i14, metadata !772, metadata !DIExpression()) #10, !dbg !782
  store %"core::cell::UnsafeCell<[core::mem::maybe_uninit::MaybeUninit<()>; 1]>"* bitcast (<{ [0 x i8] }>* @_ZN6locals3app26__rtic_internal_foo_INPUTS17hdf9dc66c5136e5d7E to %"core::cell::UnsafeCell<[core::mem::maybe_uninit::MaybeUninit<()>; 1]>"*), %"core::cell::UnsafeCell<[core::mem::maybe_uninit::MaybeUninit<()>; 1]>"** %self.dbg.spill.i20, align 4
  call void @llvm.dbg.declare(metadata %"core::cell::UnsafeCell<[core::mem::maybe_uninit::MaybeUninit<()>; 1]>"** %self.dbg.spill.i20, metadata !447, metadata !DIExpression()), !dbg !784
  br label %bb19, !dbg !764

bb19:                                             ; preds = %bb6
  %_44.0 = bitcast [1 x %"core::mem::maybe_uninit::MaybeUninit<()>"]* bitcast (<{ [0 x i8] }>* @_ZN6locals3app26__rtic_internal_foo_INPUTS17hdf9dc66c5136e5d7E to [1 x %"core::mem::maybe_uninit::MaybeUninit<()>"]*) to [0 x %"core::mem::maybe_uninit::MaybeUninit<()>"]*, !dbg !764
; call core::convert::num::<impl core::convert::From<u8> for usize>::from
  %_50 = call i32 @"_ZN4core7convert3num65_$LT$impl$u20$core..convert..From$LT$u8$GT$$u20$for$u20$usize$GT$4from17h5a3358a42c13f974E"(i8 %index) #10, !dbg !764
  br label %bb20, !dbg !764

bb20:                                             ; preds = %bb19
; call core::slice::<impl [T]>::get_unchecked
  %_43 = call nonnull align 1 %"core::mem::maybe_uninit::MaybeUninit<()>"* @"_ZN4core5slice29_$LT$impl$u20$$u5b$T$u5d$$GT$13get_unchecked17hd2da507ba33e3510E"([0 x %"core::mem::maybe_uninit::MaybeUninit<()>"]* nonnull align 1 %_44.0, i32 1, i32 %_50) #10, !dbg !764
  br label %bb21, !dbg !764

bb21:                                             ; preds = %bb20
  store %"core::mem::maybe_uninit::MaybeUninit<()>"* %_43, %"core::mem::maybe_uninit::MaybeUninit<()>"** %self.dbg.spill.i17, align 4
  call void @llvm.dbg.declare(metadata %"core::mem::maybe_uninit::MaybeUninit<()>"** %self.dbg.spill.i17, metadata !786, metadata !DIExpression()), !dbg !792
  %20 = bitcast %"core::mem::maybe_uninit::MaybeUninit<()>"* %_43 to {}*, !dbg !794
  br label %bb22, !dbg !764

bb22:                                             ; preds = %bb21
; call core::ptr::const_ptr::<impl *const T>::read
  call void @"_ZN4core3ptr9const_ptr33_$LT$impl$u20$$BP$const$u20$T$GT$4read17h60f26a767622c7c8E"({}* %20) #10, !dbg !764
  br label %bb23, !dbg !764

bb23:                                             ; preds = %bb22
  store %"rtic::RacyCell<heapless::spsc::Queue<u8, 2_usize>>"* bitcast (<{ [12 x i8] }>* @_ZN6locals3app22__rtic_internal_foo_FQ17heb020d3b7041f04fE to %"rtic::RacyCell<heapless::spsc::Queue<u8, 2_usize>>"*), %"rtic::RacyCell<heapless::spsc::Queue<u8, 2_usize>>"** %self.dbg.spill.i10, align 4
  call void @llvm.dbg.declare(metadata %"rtic::RacyCell<heapless::spsc::Queue<u8, 2_usize>>"** %self.dbg.spill.i10, metadata !507, metadata !DIExpression()) #10, !dbg !795
  store %"core::cell::UnsafeCell<heapless::spsc::Queue<u8, 2_usize>>"* bitcast (<{ [12 x i8] }>* @_ZN6locals3app22__rtic_internal_foo_FQ17heb020d3b7041f04fE to %"core::cell::UnsafeCell<heapless::spsc::Queue<u8, 2_usize>>"*), %"core::cell::UnsafeCell<heapless::spsc::Queue<u8, 2_usize>>"** %self.dbg.spill.i23, align 4
  call void @llvm.dbg.declare(metadata %"core::cell::UnsafeCell<heapless::spsc::Queue<u8, 2_usize>>"** %self.dbg.spill.i23, metadata !515, metadata !DIExpression()), !dbg !797
  br label %bb24, !dbg !764

bb24:                                             ; preds = %bb23
; call heapless::spsc::Queue<T,_>::split
  %21 = call { i32*, i32* } @"_ZN8heapless4spsc18Queue$LT$T$C$_$GT$5split17h5bcea21f35589d84E"(%"heapless::spsc::Queue<u8, 2_usize>"* align 4 dereferenceable(12) bitcast (<{ [12 x i8] }>* @_ZN6locals3app22__rtic_internal_foo_FQ17heb020d3b7041f04fE to %"heapless::spsc::Queue<u8, 2_usize>"*)) #10, !dbg !764
  store { i32*, i32* } %21, { i32*, i32* }* %_54, align 4, !dbg !764
  br label %bb25, !dbg !764

bb25:                                             ; preds = %bb24
  %_53 = bitcast { i32*, i32* }* %_54 to i32**, !dbg !764
; call heapless::spsc::Producer<T,_>::enqueue_unchecked
  call void @"_ZN8heapless4spsc21Producer$LT$T$C$_$GT$17enqueue_unchecked17h2ab9bd46dff93908E"(i32** align 4 dereferenceable(4) %_53, i8 %index) #10, !dbg !764
  br label %bb26, !dbg !764

bb26:                                             ; preds = %bb25
  store i8 1, i8* %value.dbg.spill.i5, align 1
  call void @llvm.dbg.declare(metadata i8* %value.dbg.spill.i5, metadata !799, metadata !DIExpression()) #10, !dbg !804
; call core::cell::Cell<T>::new
  %_2.i6 = call i8 @"_ZN4core4cell13Cell$LT$T$GT$3new17h0ec9730ff8e64e09E"(i8 1) #10, !dbg !806
  store i8 %_2.i6, i8* %2, align 1, !dbg !807
  %22 = load i8, i8* %2, align 1, !dbg !808
  store i8 %22, i8* %_62, align 1, !dbg !764
  br label %bb27, !dbg !764

bb27:                                             ; preds = %bb26
  store i8* %_62, i8** %priority.dbg.spill, align 4, !dbg !764
  call void @llvm.dbg.declare(metadata i8** %priority.dbg.spill, metadata !761, metadata !DIExpression()), !dbg !809
  store i8* %_62, i8** %priority.dbg.spill.i, align 4
  call void @llvm.dbg.declare(metadata i8** %priority.dbg.spill.i, metadata !810, metadata !DIExpression()) #10, !dbg !815
  store i64* bitcast (<{ [8 x i8] }>* @_ZN6locals3app43__rtic_internal_local_resource_local_to_foo17ha825634817032b38E to i64*), i64** %self.dbg.spill.i12, align 4
  call void @llvm.dbg.declare(metadata i64** %self.dbg.spill.i12, metadata !817, metadata !DIExpression()) #10, !dbg !824
  store i64* bitcast (<{ [8 x i8] }>* @_ZN6locals3app43__rtic_internal_local_resource_local_to_foo17ha825634817032b38E to i64*), i64** %self.dbg.spill.i25, align 4
  call void @llvm.dbg.declare(metadata i64** %self.dbg.spill.i25, metadata !830, metadata !DIExpression()), !dbg !836
  store i64* bitcast (<{ [8 x i8] }>* @_ZN6locals3app43__rtic_internal_local_resource_local_to_foo17ha825634817032b38E to i64*), i64** %self.dbg.spill.i19, align 4
  call void @llvm.dbg.declare(metadata i64** %self.dbg.spill.i19, metadata !838, metadata !DIExpression()), !dbg !845
  store i64* bitcast (<{ [8 x i8] }>* @_ZN6locals3app43__rtic_internal_local_resource_local_to_foo17ha825634817032b38E to i64*), i64** %1, align 4, !dbg !847
  %23 = load i64*, i64** %1, align 4, !dbg !848, !nonnull !59
  store i64* %23, i64** %5, align 4, !dbg !815
  %24 = load i64*, i64** %5, align 4, !dbg !849, !nonnull !59
  br label %bb28, !dbg !809

bb28:                                             ; preds = %bb27
; call locals::app::foo
  call void @_ZN6locals3app3foo17ha55c0f8edfab0f06E(i64* align 8 dereferenceable(8) %24) #10, !dbg !809
  br label %bb1, !dbg !809

bb9:                                              ; preds = %bb8
  %_19.0 = bitcast [1 x %"core::mem::maybe_uninit::MaybeUninit<()>"]* bitcast (<{ [0 x i8] }>* @_ZN6locals3app26__rtic_internal_bar_INPUTS17h557822a7bd01f7e2E to [1 x %"core::mem::maybe_uninit::MaybeUninit<()>"]*) to [0 x %"core::mem::maybe_uninit::MaybeUninit<()>"]*, !dbg !764
; call core::convert::num::<impl core::convert::From<u8> for usize>::from
  %_25 = call i32 @"_ZN4core7convert3num65_$LT$impl$u20$core..convert..From$LT$u8$GT$$u20$for$u20$usize$GT$4from17h5a3358a42c13f974E"(i8 %index) #10, !dbg !764
  br label %bb10, !dbg !764

bb10:                                             ; preds = %bb9
; call core::slice::<impl [T]>::get_unchecked
  %_18 = call nonnull align 1 %"core::mem::maybe_uninit::MaybeUninit<()>"* @"_ZN4core5slice29_$LT$impl$u20$$u5b$T$u5d$$GT$13get_unchecked17hd2da507ba33e3510E"([0 x %"core::mem::maybe_uninit::MaybeUninit<()>"]* nonnull align 1 %_19.0, i32 1, i32 %_25) #10, !dbg !764
  br label %bb11, !dbg !764

bb11:                                             ; preds = %bb10
  store %"core::mem::maybe_uninit::MaybeUninit<()>"* %_18, %"core::mem::maybe_uninit::MaybeUninit<()>"** %self.dbg.spill.i16, align 4
  call void @llvm.dbg.declare(metadata %"core::mem::maybe_uninit::MaybeUninit<()>"** %self.dbg.spill.i16, metadata !786, metadata !DIExpression()), !dbg !850
  %25 = bitcast %"core::mem::maybe_uninit::MaybeUninit<()>"* %_18 to {}*, !dbg !852
  br label %bb12, !dbg !764

bb12:                                             ; preds = %bb11
; call core::ptr::const_ptr::<impl *const T>::read
  call void @"_ZN4core3ptr9const_ptr33_$LT$impl$u20$$BP$const$u20$T$GT$4read17h60f26a767622c7c8E"({}* %25) #10, !dbg !764
  br label %bb13, !dbg !764

bb13:                                             ; preds = %bb12
  store %"rtic::RacyCell<heapless::spsc::Queue<u8, 2_usize>>"* bitcast (<{ [12 x i8] }>* @_ZN6locals3app22__rtic_internal_bar_FQ17h2ab7573cfd764f60E to %"rtic::RacyCell<heapless::spsc::Queue<u8, 2_usize>>"*), %"rtic::RacyCell<heapless::spsc::Queue<u8, 2_usize>>"** %self.dbg.spill.i9, align 4
  call void @llvm.dbg.declare(metadata %"rtic::RacyCell<heapless::spsc::Queue<u8, 2_usize>>"** %self.dbg.spill.i9, metadata !507, metadata !DIExpression()) #10, !dbg !853
  store %"core::cell::UnsafeCell<heapless::spsc::Queue<u8, 2_usize>>"* bitcast (<{ [12 x i8] }>* @_ZN6locals3app22__rtic_internal_bar_FQ17h2ab7573cfd764f60E to %"core::cell::UnsafeCell<heapless::spsc::Queue<u8, 2_usize>>"*), %"core::cell::UnsafeCell<heapless::spsc::Queue<u8, 2_usize>>"** %self.dbg.spill.i24, align 4
  call void @llvm.dbg.declare(metadata %"core::cell::UnsafeCell<heapless::spsc::Queue<u8, 2_usize>>"** %self.dbg.spill.i24, metadata !515, metadata !DIExpression()), !dbg !855
  br label %bb14, !dbg !764

bb14:                                             ; preds = %bb13
; call heapless::spsc::Queue<T,_>::split
  %26 = call { i32*, i32* } @"_ZN8heapless4spsc18Queue$LT$T$C$_$GT$5split17h5bcea21f35589d84E"(%"heapless::spsc::Queue<u8, 2_usize>"* align 4 dereferenceable(12) bitcast (<{ [12 x i8] }>* @_ZN6locals3app22__rtic_internal_bar_FQ17h2ab7573cfd764f60E to %"heapless::spsc::Queue<u8, 2_usize>"*)) #10, !dbg !764
  store { i32*, i32* } %26, { i32*, i32* }* %_29, align 4, !dbg !764
  br label %bb15, !dbg !764

bb15:                                             ; preds = %bb14
  %_28 = bitcast { i32*, i32* }* %_29 to i32**, !dbg !764
; call heapless::spsc::Producer<T,_>::enqueue_unchecked
  call void @"_ZN8heapless4spsc21Producer$LT$T$C$_$GT$17enqueue_unchecked17h2ab9bd46dff93908E"(i32** align 4 dereferenceable(4) %_28, i8 %index) #10, !dbg !764
  br label %bb16, !dbg !764

bb16:                                             ; preds = %bb15
  store i8 1, i8* %value.dbg.spill.i, align 1
  call void @llvm.dbg.declare(metadata i8* %value.dbg.spill.i, metadata !799, metadata !DIExpression()) #10, !dbg !857
; call core::cell::Cell<T>::new
  %_2.i4 = call i8 @"_ZN4core4cell13Cell$LT$T$GT$3new17h0ec9730ff8e64e09E"(i8 1) #10, !dbg !859
  store i8 %_2.i4, i8* %3, align 1, !dbg !860
  %27 = load i8, i8* %3, align 1, !dbg !861
  store i8 %27, i8* %_37, align 1, !dbg !764
  br label %bb17, !dbg !764

bb17:                                             ; preds = %bb16
  store i8* %_37, i8** %priority.dbg.spill1, align 4, !dbg !764
  call void @llvm.dbg.declare(metadata i8** %priority.dbg.spill1, metadata !749, metadata !DIExpression()), !dbg !862
  store i8* %_37, i8** %priority.dbg.spill.i2, align 4
  call void @llvm.dbg.declare(metadata i8** %priority.dbg.spill.i2, metadata !863, metadata !DIExpression()) #10, !dbg !868
  store i64* bitcast (<{ [8 x i8] }>* @_ZN6locals3app43__rtic_internal_local_resource_local_to_bar17hedba4fee37a14ecaE to i64*), i64** %self.dbg.spill.i11, align 4
  call void @llvm.dbg.declare(metadata i64** %self.dbg.spill.i11, metadata !817, metadata !DIExpression()) #10, !dbg !870
  store i64* bitcast (<{ [8 x i8] }>* @_ZN6locals3app43__rtic_internal_local_resource_local_to_bar17hedba4fee37a14ecaE to i64*), i64** %self.dbg.spill.i26, align 4
  call void @llvm.dbg.declare(metadata i64** %self.dbg.spill.i26, metadata !830, metadata !DIExpression()), !dbg !876
  store i64* bitcast (<{ [8 x i8] }>* @_ZN6locals3app43__rtic_internal_local_resource_local_to_bar17hedba4fee37a14ecaE to i64*), i64** %self.dbg.spill.i18, align 4
  call void @llvm.dbg.declare(metadata i64** %self.dbg.spill.i18, metadata !838, metadata !DIExpression()), !dbg !878
  store i64* bitcast (<{ [8 x i8] }>* @_ZN6locals3app43__rtic_internal_local_resource_local_to_bar17hedba4fee37a14ecaE to i64*), i64** %0, align 4, !dbg !880
  %28 = load i64*, i64** %0, align 4, !dbg !881, !nonnull !59
  store i64* %28, i64** %4, align 4, !dbg !868
  %29 = load i64*, i64** %4, align 4, !dbg !882, !nonnull !59
  br label %bb18, !dbg !862

bb18:                                             ; preds = %bb17
; call locals::app::bar
  call void @_ZN6locals3app3bar17h3dfc1d35d287dc45E(i64* align 8 dereferenceable(8) %29) #10, !dbg !862
  br label %bb1, !dbg !862
}

; Function Attrs: noreturn nounwind
define dso_local void @main() unnamed_addr #2 !dbg !883 {
start:
  %self.dbg.spill.i2 = alloca i64*, align 4
  %self.dbg.spill.i1 = alloca i64*, align 4
  %self.dbg.spill.i = alloca i64*, align 4
  %value.dbg.spill.i = alloca i8, align 1
  %0 = alloca i8, align 1
  %1 = alloca i64*, align 4
  %priority.dbg.spill.i = alloca i8*, align 4
  %2 = alloca i64*, align 4
  %_22 = alloca i8, align 1
  %_16 = alloca i8, align 1
  %_13 = alloca i8, align 1
  %core = alloca %"cortex_m::peripheral::Peripherals", align 1
  %_7 = alloca { i8, i8 }, align 1
  %_4 = alloca { i8, i8 }, align 1
  call void @llvm.dbg.declare(metadata %"cortex_m::peripheral::Peripherals"* %core, metadata !886, metadata !DIExpression()), !dbg !952
  br label %bb1, !dbg !953

bb1:                                              ; preds = %start
; call cortex_m::interrupt::disable
  call void @_ZN8cortex_m9interrupt7disable17hebd3846882b05121E() #10, !dbg !953
  br label %bb2, !dbg !953

bb2:                                              ; preds = %bb1
  %3 = bitcast { i8, i8 }* %_4 to i8*, !dbg !953
  store i8 0, i8* %3, align 1, !dbg !953
  %4 = getelementptr inbounds { i8, i8 }, { i8, i8 }* %_4, i32 0, i32 1, !dbg !953
  store i8 1, i8* %4, align 1, !dbg !953
  %5 = getelementptr inbounds { i8, i8 }, { i8, i8 }* %_4, i32 0, i32 0, !dbg !953
  %6 = load i8, i8* %5, align 1, !dbg !953
  %7 = getelementptr inbounds { i8, i8 }, { i8, i8 }* %_4, i32 0, i32 1, !dbg !953
  %8 = load i8, i8* %7, align 1, !dbg !953
; call core::iter::traits::iterator::Iterator::for_each
  call void @_ZN4core4iter6traits8iterator8Iterator8for_each17h248455fa942f1094E(i8 %6, i8 %8) #10, !dbg !953
  br label %bb3, !dbg !953

bb3:                                              ; preds = %bb2
  %9 = bitcast { i8, i8 }* %_7 to i8*, !dbg !953
  store i8 0, i8* %9, align 1, !dbg !953
  %10 = getelementptr inbounds { i8, i8 }, { i8, i8 }* %_7, i32 0, i32 1, !dbg !953
  store i8 1, i8* %10, align 1, !dbg !953
  %11 = getelementptr inbounds { i8, i8 }, { i8, i8 }* %_7, i32 0, i32 0, !dbg !953
  %12 = load i8, i8* %11, align 1, !dbg !953
  %13 = getelementptr inbounds { i8, i8 }, { i8, i8 }* %_7, i32 0, i32 1, !dbg !953
  %14 = load i8, i8* %13, align 1, !dbg !953
; call core::iter::traits::iterator::Iterator::for_each
  call void @_ZN4core4iter6traits8iterator8Iterator8for_each17h003edabc4355739dE(i8 %12, i8 %14) #10, !dbg !953
  br label %bb4, !dbg !953

bb4:                                              ; preds = %bb3
; call cortex_m::peripheral::Peripherals::steal
  call void @_ZN8cortex_m10peripheral11Peripherals5steal17hf4660d70e6ed8445E() #10, !dbg !953
  br label %bb5, !dbg !953

bb5:                                              ; preds = %bb4
; call <T as core::convert::Into<U>>::into
  call void @"_ZN50_$LT$T$u20$as$u20$core..convert..Into$LT$U$GT$$GT$4into17hb837751d062ab74fE"() #10, !dbg !953
  br label %bb6, !dbg !953

bb6:                                              ; preds = %bb5
  %_12 = bitcast %"cortex_m::peripheral::Peripherals"* %core to %"cortex_m::peripheral::NVIC"*, !dbg !952
  store i8 5, i8* %_13, align 1, !dbg !952
; call rtic::export::logical2hw
  %_14 = call i8 @_ZN4rtic6export10logical2hw17h210e62a82e639146E(i8 1, i8 3) #10, !dbg !952
  br label %bb7, !dbg !952

bb7:                                              ; preds = %bb6
  %15 = load i8, i8* %_13, align 1, !dbg !952, !range !297
; call cortex_m::peripheral::nvic::<impl cortex_m::peripheral::NVIC>::set_priority
  call void @"_ZN8cortex_m10peripheral4nvic44_$LT$impl$u20$cortex_m..peripheral..NVIC$GT$12set_priority17h755c18aead94bf5aE"(%"cortex_m::peripheral::NVIC"* nonnull align 1 %_12, i8 %15, i8 %_14) #10, !dbg !952
  br label %bb8, !dbg !952

bb8:                                              ; preds = %bb7
  store i8 5, i8* %_16, align 1, !dbg !952
  %16 = load i8, i8* %_16, align 1, !dbg !952, !range !297
; call cortex_m::peripheral::nvic::<impl cortex_m::peripheral::NVIC>::unmask
  call void @"_ZN8cortex_m10peripheral4nvic44_$LT$impl$u20$cortex_m..peripheral..NVIC$GT$6unmask17h825ea550b82b57f2E"(i8 %16) #10, !dbg !952
  br label %bb9, !dbg !952

bb9:                                              ; preds = %bb8
; call locals::app::rtic_ext::main::__rtic_init_resources
  call void @_ZN6locals3app8rtic_ext4main21__rtic_init_resources17h2f1eea4e8bb2e3a9E() #10, !dbg !952
  br label %bb10, !dbg !952

bb10:                                             ; preds = %bb9
  store i8 0, i8* %value.dbg.spill.i, align 1
  call void @llvm.dbg.declare(metadata i8* %value.dbg.spill.i, metadata !799, metadata !DIExpression()) #10, !dbg !954
; call core::cell::Cell<T>::new
  %_2.i = call i8 @"_ZN4core4cell13Cell$LT$T$GT$3new17h0ec9730ff8e64e09E"(i8 0) #10, !dbg !956
  store i8 %_2.i, i8* %0, align 1, !dbg !957
  %17 = load i8, i8* %0, align 1, !dbg !958
  store i8 %17, i8* %_22, align 1, !dbg !952
  br label %bb11, !dbg !952

bb11:                                             ; preds = %bb10
  store i8* %_22, i8** %priority.dbg.spill.i, align 4
  call void @llvm.dbg.declare(metadata i8** %priority.dbg.spill.i, metadata !959, metadata !DIExpression()) #10, !dbg !964
  store i64* bitcast (<{ [8 x i8] }>* @_ZN6locals3app44__rtic_internal_local_resource_local_to_idle17h9592b26e73b21be8E to i64*), i64** %self.dbg.spill.i, align 4
  call void @llvm.dbg.declare(metadata i64** %self.dbg.spill.i, metadata !817, metadata !DIExpression()) #10, !dbg !966
  store i64* bitcast (<{ [8 x i8] }>* @_ZN6locals3app44__rtic_internal_local_resource_local_to_idle17h9592b26e73b21be8E to i64*), i64** %self.dbg.spill.i2, align 4
  call void @llvm.dbg.declare(metadata i64** %self.dbg.spill.i2, metadata !830, metadata !DIExpression()), !dbg !972
  store i64* bitcast (<{ [8 x i8] }>* @_ZN6locals3app44__rtic_internal_local_resource_local_to_idle17h9592b26e73b21be8E to i64*), i64** %self.dbg.spill.i1, align 4
  call void @llvm.dbg.declare(metadata i64** %self.dbg.spill.i1, metadata !838, metadata !DIExpression()), !dbg !974
  store i64* bitcast (<{ [8 x i8] }>* @_ZN6locals3app44__rtic_internal_local_resource_local_to_idle17h9592b26e73b21be8E to i64*), i64** %1, align 4, !dbg !976
  %18 = load i64*, i64** %1, align 4, !dbg !977, !nonnull !59
  store i64* %18, i64** %2, align 4, !dbg !964
  %19 = load i64*, i64** %2, align 4, !dbg !978, !nonnull !59
  br label %bb12, !dbg !952

bb12:                                             ; preds = %bb11
; call locals::app::idle
  call void @_ZN6locals3app4idle17h10dbad5f387d0984E(i64* align 8 dereferenceable(8) %19) #11, !dbg !952
  unreachable, !dbg !952
}

; locals::app::rtic_ext::main::{{closure}}
; Function Attrs: inlinehint nounwind
define internal void @"_ZN6locals3app8rtic_ext4main28_$u7b$$u7b$closure$u7d$$u7d$17h1bdb1d17f7ba3d47E"(%"[closure@examples/locals.rs:10:1: 10:62]"* nonnull align 1 %_1, i8 %i) unnamed_addr #1 !dbg !979 {
start:
  %self.dbg.spill.i1 = alloca %"core::cell::UnsafeCell<heapless::spsc::Queue<u8, 2_usize>>"*, align 4
  %self.dbg.spill.i = alloca %"rtic::RacyCell<heapless::spsc::Queue<u8, 2_usize>>"*, align 4
  %i.dbg.spill = alloca i8, align 1
  %_1.dbg.spill = alloca %"[closure@examples/locals.rs:10:1: 10:62]"*, align 4
  store %"[closure@examples/locals.rs:10:1: 10:62]"* %_1, %"[closure@examples/locals.rs:10:1: 10:62]"** %_1.dbg.spill, align 4
  call void @llvm.dbg.declare(metadata %"[closure@examples/locals.rs:10:1: 10:62]"** %_1.dbg.spill, metadata !987, metadata !DIExpression()), !dbg !988
  store i8 %i, i8* %i.dbg.spill, align 1
  call void @llvm.dbg.declare(metadata i8* %i.dbg.spill, metadata !986, metadata !DIExpression()), !dbg !988
  store %"rtic::RacyCell<heapless::spsc::Queue<u8, 2_usize>>"* bitcast (<{ [12 x i8] }>* @_ZN6locals3app22__rtic_internal_foo_FQ17heb020d3b7041f04fE to %"rtic::RacyCell<heapless::spsc::Queue<u8, 2_usize>>"*), %"rtic::RacyCell<heapless::spsc::Queue<u8, 2_usize>>"** %self.dbg.spill.i, align 4
  call void @llvm.dbg.declare(metadata %"rtic::RacyCell<heapless::spsc::Queue<u8, 2_usize>>"** %self.dbg.spill.i, metadata !507, metadata !DIExpression()) #10, !dbg !989
  store %"core::cell::UnsafeCell<heapless::spsc::Queue<u8, 2_usize>>"* bitcast (<{ [12 x i8] }>* @_ZN6locals3app22__rtic_internal_foo_FQ17heb020d3b7041f04fE to %"core::cell::UnsafeCell<heapless::spsc::Queue<u8, 2_usize>>"*), %"core::cell::UnsafeCell<heapless::spsc::Queue<u8, 2_usize>>"** %self.dbg.spill.i1, align 4
  call void @llvm.dbg.declare(metadata %"core::cell::UnsafeCell<heapless::spsc::Queue<u8, 2_usize>>"** %self.dbg.spill.i1, metadata !515, metadata !DIExpression()), !dbg !991
  br label %bb1, !dbg !988

bb1:                                              ; preds = %start
; call heapless::spsc::Queue<T,_>::enqueue_unchecked
  call void @"_ZN8heapless4spsc18Queue$LT$T$C$_$GT$17enqueue_unchecked17h37791079c683ec91E"(%"heapless::spsc::Queue<u8, 2_usize>"* align 4 dereferenceable(12) bitcast (<{ [12 x i8] }>* @_ZN6locals3app22__rtic_internal_foo_FQ17heb020d3b7041f04fE to %"heapless::spsc::Queue<u8, 2_usize>"*), i8 %i) #10, !dbg !988
  br label %bb2, !dbg !988

bb2:                                              ; preds = %bb1
  ret void, !dbg !993
}

; locals::app::rtic_ext::main::{{closure}}
; Function Attrs: inlinehint nounwind
define internal void @"_ZN6locals3app8rtic_ext4main28_$u7b$$u7b$closure$u7d$$u7d$17h55422711175e8f91E"(%"[closure@examples/locals.rs:10:1: 10:62].0"* nonnull align 1 %_1, i8 %i) unnamed_addr #1 !dbg !994 {
start:
  %self.dbg.spill.i1 = alloca %"core::cell::UnsafeCell<heapless::spsc::Queue<u8, 2_usize>>"*, align 4
  %self.dbg.spill.i = alloca %"rtic::RacyCell<heapless::spsc::Queue<u8, 2_usize>>"*, align 4
  %i.dbg.spill = alloca i8, align 1
  %_1.dbg.spill = alloca %"[closure@examples/locals.rs:10:1: 10:62].0"*, align 4
  store %"[closure@examples/locals.rs:10:1: 10:62].0"* %_1, %"[closure@examples/locals.rs:10:1: 10:62].0"** %_1.dbg.spill, align 4
  call void @llvm.dbg.declare(metadata %"[closure@examples/locals.rs:10:1: 10:62].0"** %_1.dbg.spill, metadata !1001, metadata !DIExpression()), !dbg !1002
  store i8 %i, i8* %i.dbg.spill, align 1
  call void @llvm.dbg.declare(metadata i8* %i.dbg.spill, metadata !1000, metadata !DIExpression()), !dbg !1002
  store %"rtic::RacyCell<heapless::spsc::Queue<u8, 2_usize>>"* bitcast (<{ [12 x i8] }>* @_ZN6locals3app22__rtic_internal_bar_FQ17h2ab7573cfd764f60E to %"rtic::RacyCell<heapless::spsc::Queue<u8, 2_usize>>"*), %"rtic::RacyCell<heapless::spsc::Queue<u8, 2_usize>>"** %self.dbg.spill.i, align 4
  call void @llvm.dbg.declare(metadata %"rtic::RacyCell<heapless::spsc::Queue<u8, 2_usize>>"** %self.dbg.spill.i, metadata !507, metadata !DIExpression()) #10, !dbg !1003
  store %"core::cell::UnsafeCell<heapless::spsc::Queue<u8, 2_usize>>"* bitcast (<{ [12 x i8] }>* @_ZN6locals3app22__rtic_internal_bar_FQ17h2ab7573cfd764f60E to %"core::cell::UnsafeCell<heapless::spsc::Queue<u8, 2_usize>>"*), %"core::cell::UnsafeCell<heapless::spsc::Queue<u8, 2_usize>>"** %self.dbg.spill.i1, align 4
  call void @llvm.dbg.declare(metadata %"core::cell::UnsafeCell<heapless::spsc::Queue<u8, 2_usize>>"** %self.dbg.spill.i1, metadata !515, metadata !DIExpression()), !dbg !1005
  br label %bb1, !dbg !1002

bb1:                                              ; preds = %start
; call heapless::spsc::Queue<T,_>::enqueue_unchecked
  call void @"_ZN8heapless4spsc18Queue$LT$T$C$_$GT$17enqueue_unchecked17h37791079c683ec91E"(%"heapless::spsc::Queue<u8, 2_usize>"* align 4 dereferenceable(12) bitcast (<{ [12 x i8] }>* @_ZN6locals3app22__rtic_internal_bar_FQ17h2ab7573cfd764f60E to %"heapless::spsc::Queue<u8, 2_usize>"*), i8 %i) #10, !dbg !1002
  br label %bb2, !dbg !1002

bb2:                                              ; preds = %bb1
  ret void, !dbg !1007
}

; locals::app::rtic_ext::main::__rtic_init_resources
; Function Attrs: noinline nounwind
define internal void @_ZN6locals3app8rtic_ext4main21__rtic_init_resources17h2f1eea4e8bb2e3a9E() unnamed_addr #3 !dbg !1008 {
start:
  %f.dbg.spill = alloca %"[closure@examples/locals.rs:10:1: 10:62].6", align 1
  call void @llvm.dbg.declare(metadata %"[closure@examples/locals.rs:10:1: 10:62].6"* %f.dbg.spill, metadata !1015, metadata !DIExpression()), !dbg !1018
; call locals::app::rtic_ext::main::{{closure}}
  call void @"_ZN6locals3app8rtic_ext4main28_$u7b$$u7b$closure$u7d$$u7d$17hfd06d08bbe916045E"() #10, !dbg !1018
  br label %bb1, !dbg !1018

bb1:                                              ; preds = %start
  ret void, !dbg !1019
}

; locals::app::rtic_ext::main::{{closure}}
; Function Attrs: inlinehint nounwind
define internal void @"_ZN6locals3app8rtic_ext4main28_$u7b$$u7b$closure$u7d$$u7d$17hfd06d08bbe916045E"() unnamed_addr #1 !dbg !1020 {
start:
  %self.dbg.spill.i15 = alloca i64*, align 4
  %self.dbg.spill.i14 = alloca i64*, align 4
  %self.dbg.spill.i13 = alloca i64*, align 4
  %val.dbg.spill.i11 = alloca i64, align 8
  %self.dbg.spill.i12 = alloca i64*, align 4
  %val.dbg.spill.i9 = alloca i64, align 8
  %self.dbg.spill.i10 = alloca i64*, align 4
  %val.dbg.spill.i7 = alloca i64, align 8
  %self.dbg.spill.i8 = alloca i64*, align 4
  %value.dbg.spill.i.i5 = alloca i64, align 8
  %0 = alloca i64, align 8
  %val.dbg.spill.i6 = alloca i64, align 8
  %1 = alloca i64, align 8
  %value.dbg.spill.i.i3 = alloca i64, align 8
  %2 = alloca i64, align 8
  %val.dbg.spill.i4 = alloca i64, align 8
  %3 = alloca i64, align 8
  %value.dbg.spill.i.i = alloca i64, align 8
  %4 = alloca i64, align 8
  %val.dbg.spill.i = alloca i64, align 8
  %5 = alloca i64, align 8
  %self.dbg.spill.i2 = alloca i64*, align 4
  %self.dbg.spill.i1 = alloca i64*, align 4
  %self.dbg.spill.i = alloca i64*, align 4
  %_6.i = alloca %"app::Local", align 8
  %monotonics.dbg.spill = alloca %"app::__rtic_internal_Monotonics", align 1
  %shared_resources.dbg.spill = alloca %"app::Shared", align 1
  %_1.dbg.spill = alloca %"[closure@examples/locals.rs:10:1: 10:62].6", align 1
  %_5 = alloca { %"app::Shared", %"app::Local", %"app::__rtic_internal_Monotonics" }, align 8
  %local_resources = alloca %"app::Local", align 8
  %6 = bitcast %"[closure@examples/locals.rs:10:1: 10:62].6"* %_1.dbg.spill to %"cortex_m::peripheral::Peripherals"*
  call void @llvm.dbg.declare(metadata %"[closure@examples/locals.rs:10:1: 10:62].6"* %_1.dbg.spill, metadata !1022, metadata !DIExpression()), !dbg !1034
  call void @llvm.dbg.declare(metadata %"app::Shared"* %shared_resources.dbg.spill, metadata !1023, metadata !DIExpression()), !dbg !1035
  call void @llvm.dbg.declare(metadata %"app::Local"* %local_resources, metadata !1026, metadata !DIExpression()), !dbg !1035
  call void @llvm.dbg.declare(metadata %"app::__rtic_internal_Monotonics"* %monotonics.dbg.spill, metadata !1032, metadata !DIExpression()), !dbg !1035
; call <T as core::convert::Into<U>>::into
  call void @"_ZN50_$LT$T$u20$as$u20$core..convert..Into$LT$U$GT$$GT$4into17hb837751d062ab74fE"() #10, !dbg !1034
  br label %bb1, !dbg !1034

bb1:                                              ; preds = %start
  call void @llvm.dbg.declare(metadata %"cortex_m::peripheral::Peripherals"* undef, metadata !1036, metadata !DIExpression()) #10, !dbg !1053
; call lm3s6965::Peripherals::steal
  call void @_ZN8lm3s696511Peripherals5steal17h618f0739b52a798eE() #10, !dbg !1053
  br label %bb2, !dbg !1034

bb2:                                              ; preds = %bb1
  call void @llvm.experimental.noalias.scope.decl(metadata !1055), !dbg !1034
  call void @llvm.dbg.declare(metadata %"app::__rtic_internal_init_Context"* undef, metadata !1058, metadata !DIExpression()) #10, !dbg !1068
; call locals::app::__rtic_internal_foo_spawn
  %_3.i = call zeroext i1 @_ZN6locals3app25__rtic_internal_foo_spawn17hf95648dd5d6bc8a0E() #10, !dbg !1070, !noalias !1055
; call core::result::Result<T,E>::unwrap
  call void @"_ZN4core6result19Result$LT$T$C$E$GT$6unwrap17had281be05a095966E"(i1 zeroext %_3.i, %"core::panic::location::Location"* align 4 dereferenceable(16) bitcast (<{ i8*, [12 x i8] }>* @alloc167 to %"core::panic::location::Location"*)) #10, !dbg !1070, !noalias !1055
; call locals::app::__rtic_internal_bar_spawn
  %_5.i = call zeroext i1 @_ZN6locals3app25__rtic_internal_bar_spawn17hbcc8391a9543253dE() #10, !dbg !1071, !noalias !1055
; call core::result::Result<T,E>::unwrap
  call void @"_ZN4core6result19Result$LT$T$C$E$GT$6unwrap17had281be05a095966E"(i1 zeroext %_5.i, %"core::panic::location::Location"* align 4 dereferenceable(16) bitcast (<{ i8*, [12 x i8] }>* @alloc169 to %"core::panic::location::Location"*)) #10, !dbg !1071, !noalias !1055
  %7 = bitcast %"app::Local"* %_6.i to i64*, !dbg !1072
  store i64 0, i64* %7, align 8, !dbg !1072, !noalias !1055
  %8 = getelementptr inbounds %"app::Local", %"app::Local"* %_6.i, i32 0, i32 1, !dbg !1072
  store i64 0, i64* %8, align 8, !dbg !1072, !noalias !1055
  %9 = getelementptr inbounds %"app::Local", %"app::Local"* %_6.i, i32 0, i32 2, !dbg !1072
  store i64 0, i64* %9, align 8, !dbg !1072, !noalias !1055
  %10 = bitcast { %"app::Shared", %"app::Local", %"app::__rtic_internal_Monotonics" }* %_5 to %"app::Local"*, !dbg !1073
  %11 = bitcast %"app::Local"* %10 to i8*, !dbg !1073
  %12 = bitcast %"app::Local"* %_6.i to i8*, !dbg !1073
  call void @llvm.memcpy.p0i8.p0i8.i32(i8* align 8 %11, i8* align 8 %12, i32 24, i1 false) #10, !dbg !1073
  br label %bb3, !dbg !1034

bb3:                                              ; preds = %bb2
  %13 = bitcast { %"app::Shared", %"app::Local", %"app::__rtic_internal_Monotonics" }* %_5 to %"app::Local"*, !dbg !1034
  %14 = bitcast %"app::Local"* %local_resources to i8*, !dbg !1034
  %15 = bitcast %"app::Local"* %13 to i8*, !dbg !1034
  call void @llvm.memcpy.p0i8.p0i8.i32(i8* align 8 %14, i8* align 8 %15, i32 24, i1 false), !dbg !1034
  store i64* bitcast (<{ [8 x i8] }>* @_ZN6locals3app43__rtic_internal_local_resource_local_to_foo17ha825634817032b38E to i64*), i64** %self.dbg.spill.i2, align 4
  call void @llvm.dbg.declare(metadata i64** %self.dbg.spill.i2, metadata !817, metadata !DIExpression()) #10, !dbg !1074
  store i64* bitcast (<{ [8 x i8] }>* @_ZN6locals3app43__rtic_internal_local_resource_local_to_foo17ha825634817032b38E to i64*), i64** %self.dbg.spill.i13, align 4
  call void @llvm.dbg.declare(metadata i64** %self.dbg.spill.i13, metadata !830, metadata !DIExpression()), !dbg !1076
  br label %bb4, !dbg !1035

bb4:                                              ; preds = %bb3
  %16 = bitcast %"app::Local"* %local_resources to i64*, !dbg !1035
  %_14 = load i64, i64* %16, align 8, !dbg !1035
  store i64 %_14, i64* %val.dbg.spill.i6, align 8
  call void @llvm.dbg.declare(metadata i64* %val.dbg.spill.i6, metadata !1078, metadata !DIExpression()), !dbg !1083
  store i64 %_14, i64* %value.dbg.spill.i.i5, align 8
  call void @llvm.dbg.declare(metadata i64* %value.dbg.spill.i.i5, metadata !1085, metadata !DIExpression()), !dbg !1091
  store i64 %_14, i64* %0, align 8, !dbg !1093
  %17 = load i64, i64* %0, align 8, !dbg !1094
  store i64 %17, i64* %1, align 8, !dbg !1095
  %18 = load i64, i64* %1, align 8, !dbg !1096
  br label %bb5, !dbg !1035

bb5:                                              ; preds = %bb4
  store i64* bitcast (<{ [8 x i8] }>* @_ZN6locals3app43__rtic_internal_local_resource_local_to_foo17ha825634817032b38E to i64*), i64** %self.dbg.spill.i12, align 4
  call void @llvm.dbg.declare(metadata i64** %self.dbg.spill.i12, metadata !1097, metadata !DIExpression()) #10, !dbg !1103
  store i64 %18, i64* %val.dbg.spill.i11, align 8
  call void @llvm.dbg.declare(metadata i64* %val.dbg.spill.i11, metadata !1102, metadata !DIExpression()) #10, !dbg !1105
; call core::ptr::write
  call void @_ZN4core3ptr5write17h82b9f7fb1924c0bdE(i64* bitcast (<{ [8 x i8] }>* @_ZN6locals3app43__rtic_internal_local_resource_local_to_foo17ha825634817032b38E to i64*), i64 %18) #10, !dbg !1106
  br label %bb6, !dbg !1035

bb6:                                              ; preds = %bb5
  store i64* bitcast (<{ [8 x i8] }>* @_ZN6locals3app43__rtic_internal_local_resource_local_to_bar17hedba4fee37a14ecaE to i64*), i64** %self.dbg.spill.i1, align 4
  call void @llvm.dbg.declare(metadata i64** %self.dbg.spill.i1, metadata !817, metadata !DIExpression()) #10, !dbg !1107
  store i64* bitcast (<{ [8 x i8] }>* @_ZN6locals3app43__rtic_internal_local_resource_local_to_bar17hedba4fee37a14ecaE to i64*), i64** %self.dbg.spill.i14, align 4
  call void @llvm.dbg.declare(metadata i64** %self.dbg.spill.i14, metadata !830, metadata !DIExpression()), !dbg !1109
  br label %bb7, !dbg !1035

bb7:                                              ; preds = %bb6
  %19 = getelementptr inbounds %"app::Local", %"app::Local"* %local_resources, i32 0, i32 1, !dbg !1035
  %_20 = load i64, i64* %19, align 8, !dbg !1035
  store i64 %_20, i64* %val.dbg.spill.i4, align 8
  call void @llvm.dbg.declare(metadata i64* %val.dbg.spill.i4, metadata !1078, metadata !DIExpression()), !dbg !1111
  store i64 %_20, i64* %value.dbg.spill.i.i3, align 8
  call void @llvm.dbg.declare(metadata i64* %value.dbg.spill.i.i3, metadata !1085, metadata !DIExpression()), !dbg !1113
  store i64 %_20, i64* %2, align 8, !dbg !1115
  %20 = load i64, i64* %2, align 8, !dbg !1116
  store i64 %20, i64* %3, align 8, !dbg !1117
  %21 = load i64, i64* %3, align 8, !dbg !1118
  br label %bb8, !dbg !1035

bb8:                                              ; preds = %bb7
  store i64* bitcast (<{ [8 x i8] }>* @_ZN6locals3app43__rtic_internal_local_resource_local_to_bar17hedba4fee37a14ecaE to i64*), i64** %self.dbg.spill.i10, align 4
  call void @llvm.dbg.declare(metadata i64** %self.dbg.spill.i10, metadata !1097, metadata !DIExpression()) #10, !dbg !1119
  store i64 %21, i64* %val.dbg.spill.i9, align 8
  call void @llvm.dbg.declare(metadata i64* %val.dbg.spill.i9, metadata !1102, metadata !DIExpression()) #10, !dbg !1121
; call core::ptr::write
  call void @_ZN4core3ptr5write17h82b9f7fb1924c0bdE(i64* bitcast (<{ [8 x i8] }>* @_ZN6locals3app43__rtic_internal_local_resource_local_to_bar17hedba4fee37a14ecaE to i64*), i64 %21) #10, !dbg !1122
  br label %bb9, !dbg !1035

bb9:                                              ; preds = %bb8
  store i64* bitcast (<{ [8 x i8] }>* @_ZN6locals3app44__rtic_internal_local_resource_local_to_idle17h9592b26e73b21be8E to i64*), i64** %self.dbg.spill.i, align 4
  call void @llvm.dbg.declare(metadata i64** %self.dbg.spill.i, metadata !817, metadata !DIExpression()) #10, !dbg !1123
  store i64* bitcast (<{ [8 x i8] }>* @_ZN6locals3app44__rtic_internal_local_resource_local_to_idle17h9592b26e73b21be8E to i64*), i64** %self.dbg.spill.i15, align 4
  call void @llvm.dbg.declare(metadata i64** %self.dbg.spill.i15, metadata !830, metadata !DIExpression()), !dbg !1125
  br label %bb10, !dbg !1035

bb10:                                             ; preds = %bb9
  %22 = getelementptr inbounds %"app::Local", %"app::Local"* %local_resources, i32 0, i32 2, !dbg !1035
  %_26 = load i64, i64* %22, align 8, !dbg !1035
  store i64 %_26, i64* %val.dbg.spill.i, align 8
  call void @llvm.dbg.declare(metadata i64* %val.dbg.spill.i, metadata !1078, metadata !DIExpression()), !dbg !1127
  store i64 %_26, i64* %value.dbg.spill.i.i, align 8
  call void @llvm.dbg.declare(metadata i64* %value.dbg.spill.i.i, metadata !1085, metadata !DIExpression()), !dbg !1129
  store i64 %_26, i64* %4, align 8, !dbg !1131
  %23 = load i64, i64* %4, align 8, !dbg !1132
  store i64 %23, i64* %5, align 8, !dbg !1133
  %24 = load i64, i64* %5, align 8, !dbg !1134
  br label %bb11, !dbg !1035

bb11:                                             ; preds = %bb10
  store i64* bitcast (<{ [8 x i8] }>* @_ZN6locals3app44__rtic_internal_local_resource_local_to_idle17h9592b26e73b21be8E to i64*), i64** %self.dbg.spill.i8, align 4
  call void @llvm.dbg.declare(metadata i64** %self.dbg.spill.i8, metadata !1097, metadata !DIExpression()) #10, !dbg !1135
  store i64 %24, i64* %val.dbg.spill.i7, align 8
  call void @llvm.dbg.declare(metadata i64* %val.dbg.spill.i7, metadata !1102, metadata !DIExpression()) #10, !dbg !1137
; call core::ptr::write
  call void @_ZN4core3ptr5write17h82b9f7fb1924c0bdE(i64* bitcast (<{ [8 x i8] }>* @_ZN6locals3app44__rtic_internal_local_resource_local_to_idle17h9592b26e73b21be8E to i64*), i64 %24) #10, !dbg !1138
  br label %bb12, !dbg !1035

bb12:                                             ; preds = %bb11
; call cortex_m::interrupt::enable
  call void @_ZN8cortex_m9interrupt6enable17h5a8c08841dc312b2E() #10, !dbg !1035
  br label %bb13, !dbg !1035

bb13:                                             ; preds = %bb12
  ret void, !dbg !1139
}

; rtic::pend
; Function Attrs: nounwind
define internal void @_ZN4rtic4pend17h9dbd054a9ea733f9E(i8 %interrupt) unnamed_addr #0 !dbg !1140 {
start:
  %interrupt.dbg.spill = alloca i8, align 1
  store i8 %interrupt, i8* %interrupt.dbg.spill, align 1
  call void @llvm.dbg.declare(metadata i8* %interrupt.dbg.spill, metadata !1144, metadata !DIExpression()), !dbg !1147
; call cortex_m::peripheral::nvic::<impl cortex_m::peripheral::NVIC>::pend
  call void @"_ZN8cortex_m10peripheral4nvic44_$LT$impl$u20$cortex_m..peripheral..NVIC$GT$4pend17h0c9c6720008e79b3E"(i8 %interrupt) #10, !dbg !1148
  br label %bb1, !dbg !1148

bb1:                                              ; preds = %start
  ret void, !dbg !1149
}

; cortex_m::peripheral::nvic::<impl cortex_m::peripheral::NVIC>::unmask
; Function Attrs: inlinehint nounwind
define internal void @"_ZN8cortex_m10peripheral4nvic44_$LT$impl$u20$cortex_m..peripheral..NVIC$GT$6unmask17h825ea550b82b57f2E"(i8 %interrupt) unnamed_addr #1 !dbg !1150 {
start:
  %self.dbg.spill.i2 = alloca i32*, align 4
  %value.dbg.spill.i.i = alloca i32, align 4
  %self.dbg.spill.i.i = alloca i32*, align 4
  %value.dbg.spill.i = alloca i32, align 4
  %self.dbg.spill.i = alloca i32*, align 4
  %nr.dbg.spill = alloca i16, align 2
  %interrupt.dbg.spill = alloca i8, align 1
  store i8 %interrupt, i8* %interrupt.dbg.spill, align 1
  call void @llvm.dbg.declare(metadata i8* %interrupt.dbg.spill, metadata !1153, metadata !DIExpression()), !dbg !1156
; call <T as cortex_m::interrupt::InterruptNumber>::number
  %nr = call i16 @"_ZN58_$LT$T$u20$as$u20$cortex_m..interrupt..InterruptNumber$GT$6number17h7a5d7a0fd28511f6E"(i8 %interrupt) #10, !dbg !1157
  store i16 %nr, i16* %nr.dbg.spill, align 2, !dbg !1157
  call void @llvm.dbg.declare(metadata i16* %nr.dbg.spill, metadata !1154, metadata !DIExpression()), !dbg !1158
  br label %bb1, !dbg !1157

bb1:                                              ; preds = %start
  br label %bb2, !dbg !1159

bb2:                                              ; preds = %bb1
  %_7 = udiv i16 %nr, 32, !dbg !1160
; call core::convert::num::<impl core::convert::From<u16> for usize>::from
  %_6 = call i32 @"_ZN4core7convert3num66_$LT$impl$u20$core..convert..From$LT$u16$GT$$u20$for$u20$usize$GT$4from17hb2e480a8ed69ba2dE"(i16 %_7) #10, !dbg !1161
  br label %bb3, !dbg !1161

bb3:                                              ; preds = %bb2
  %_10 = icmp ult i32 %_6, 16, !dbg !1162
  %0 = call i1 @llvm.expect.i1(i1 %_10, i1 true), !dbg !1162
  br i1 %0, label %bb4, label %panic, !dbg !1162

bb4:                                              ; preds = %bb3
  %1 = bitcast %"cortex_m::peripheral::nvic::RegisterBlock"* inttoptr (i32 -536813312 to %"cortex_m::peripheral::nvic::RegisterBlock"*) to [16 x i32]*, !dbg !1162
  %_4 = getelementptr inbounds [16 x i32], [16 x i32]* %1, i32 0, i32 %_6, !dbg !1162
  %_12 = urem i16 %nr, 32, !dbg !1163
  %2 = and i16 %_12, -32, !dbg !1164
  %_14.1 = icmp ne i16 %2, 0, !dbg !1164
  %3 = zext i16 %_12 to i32, !dbg !1164
  %4 = and i32 %3, 31, !dbg !1164
  %_14.0 = shl i32 1, %4, !dbg !1164
  %5 = call i1 @llvm.expect.i1(i1 %_14.1, i1 false), !dbg !1164
  br i1 %5, label %panic1, label %bb5, !dbg !1164

panic:                                            ; preds = %bb3
; call core::panicking::panic_bounds_check
  call void @_ZN4core9panicking18panic_bounds_check17h5f129c306aeb31cbE(i32 %_6, i32 16, %"core::panic::location::Location"* align 4 dereferenceable(16) bitcast (<{ i8*, [12 x i8] }>* @alloc189 to %"core::panic::location::Location"*)) #11, !dbg !1162
  unreachable, !dbg !1162

bb5:                                              ; preds = %bb4
  store i32* %_4, i32** %self.dbg.spill.i, align 4
  call void @llvm.dbg.declare(metadata i32** %self.dbg.spill.i, metadata !1165, metadata !DIExpression()) #10, !dbg !1187
  store i32 %_14.0, i32* %value.dbg.spill.i, align 4
  call void @llvm.dbg.declare(metadata i32* %value.dbg.spill.i, metadata !1186, metadata !DIExpression()) #10, !dbg !1189
  store i32* %_4, i32** %self.dbg.spill.i.i, align 4
  call void @llvm.dbg.declare(metadata i32** %self.dbg.spill.i.i, metadata !1190, metadata !DIExpression()) #10, !dbg !1198
  store i32 %_14.0, i32* %value.dbg.spill.i.i, align 4
  call void @llvm.dbg.declare(metadata i32* %value.dbg.spill.i.i, metadata !1197, metadata !DIExpression()) #10, !dbg !1200
  store i32* %_4, i32** %self.dbg.spill.i2, align 4
  call void @llvm.dbg.declare(metadata i32** %self.dbg.spill.i2, metadata !1201, metadata !DIExpression()), !dbg !1208
; call core::ptr::write_volatile
  call void @_ZN4core3ptr14write_volatile17h50533fac3ae79608E(i32* %_4, i32 %_14.0) #10, !dbg !1210
  br label %bb6, !dbg !1162

panic1:                                           ; preds = %bb4
; call core::panicking::panic
  call void @_ZN4core9panicking5panic17h9e72682d8e5e8cf1E([0 x i8]* nonnull align 1 bitcast ([35 x i8]* @str.1 to [0 x i8]*), i32 35, %"core::panic::location::Location"* align 4 dereferenceable(16) bitcast (<{ i8*, [12 x i8] }>* @alloc191 to %"core::panic::location::Location"*)) #11, !dbg !1164
  unreachable, !dbg !1164

bb6:                                              ; preds = %bb5
  ret void, !dbg !1211
}

; cortex_m::peripheral::nvic::<impl cortex_m::peripheral::NVIC>::pend
; Function Attrs: inlinehint nounwind
define internal void @"_ZN8cortex_m10peripheral4nvic44_$LT$impl$u20$cortex_m..peripheral..NVIC$GT$4pend17h0c9c6720008e79b3E"(i8 %interrupt) unnamed_addr #1 !dbg !1212 {
start:
  %self.dbg.spill.i2 = alloca i32*, align 4
  %value.dbg.spill.i.i = alloca i32, align 4
  %self.dbg.spill.i.i = alloca i32*, align 4
  %value.dbg.spill.i = alloca i32, align 4
  %self.dbg.spill.i = alloca i32*, align 4
  %nr.dbg.spill = alloca i16, align 2
  %interrupt.dbg.spill = alloca i8, align 1
  store i8 %interrupt, i8* %interrupt.dbg.spill, align 1
  call void @llvm.dbg.declare(metadata i8* %interrupt.dbg.spill, metadata !1214, metadata !DIExpression()), !dbg !1217
; call <T as cortex_m::interrupt::InterruptNumber>::number
  %nr = call i16 @"_ZN58_$LT$T$u20$as$u20$cortex_m..interrupt..InterruptNumber$GT$6number17h7a5d7a0fd28511f6E"(i8 %interrupt) #10, !dbg !1218
  store i16 %nr, i16* %nr.dbg.spill, align 2, !dbg !1218
  call void @llvm.dbg.declare(metadata i16* %nr.dbg.spill, metadata !1215, metadata !DIExpression()), !dbg !1219
  br label %bb1, !dbg !1218

bb1:                                              ; preds = %start
  br label %bb2, !dbg !1220

bb2:                                              ; preds = %bb1
  %_7 = udiv i16 %nr, 32, !dbg !1221
; call core::convert::num::<impl core::convert::From<u16> for usize>::from
  %_6 = call i32 @"_ZN4core7convert3num66_$LT$impl$u20$core..convert..From$LT$u16$GT$$u20$for$u20$usize$GT$4from17hb2e480a8ed69ba2dE"(i16 %_7) #10, !dbg !1222
  br label %bb3, !dbg !1222

bb3:                                              ; preds = %bb2
  %_10 = icmp ult i32 %_6, 16, !dbg !1223
  %0 = call i1 @llvm.expect.i1(i1 %_10, i1 true), !dbg !1223
  br i1 %0, label %bb4, label %panic, !dbg !1223

bb4:                                              ; preds = %bb3
  %1 = getelementptr inbounds %"cortex_m::peripheral::nvic::RegisterBlock", %"cortex_m::peripheral::nvic::RegisterBlock"* inttoptr (i32 -536813312 to %"cortex_m::peripheral::nvic::RegisterBlock"*), i32 0, i32 4, !dbg !1223
  %_4 = getelementptr inbounds [16 x i32], [16 x i32]* %1, i32 0, i32 %_6, !dbg !1223
  %_12 = urem i16 %nr, 32, !dbg !1224
  %2 = and i16 %_12, -32, !dbg !1225
  %_14.1 = icmp ne i16 %2, 0, !dbg !1225
  %3 = zext i16 %_12 to i32, !dbg !1225
  %4 = and i32 %3, 31, !dbg !1225
  %_14.0 = shl i32 1, %4, !dbg !1225
  %5 = call i1 @llvm.expect.i1(i1 %_14.1, i1 false), !dbg !1225
  br i1 %5, label %panic1, label %bb5, !dbg !1225

panic:                                            ; preds = %bb3
; call core::panicking::panic_bounds_check
  call void @_ZN4core9panicking18panic_bounds_check17h5f129c306aeb31cbE(i32 %_6, i32 16, %"core::panic::location::Location"* align 4 dereferenceable(16) bitcast (<{ i8*, [12 x i8] }>* @alloc193 to %"core::panic::location::Location"*)) #11, !dbg !1223
  unreachable, !dbg !1223

bb5:                                              ; preds = %bb4
  store i32* %_4, i32** %self.dbg.spill.i, align 4
  call void @llvm.dbg.declare(metadata i32** %self.dbg.spill.i, metadata !1165, metadata !DIExpression()) #10, !dbg !1226
  store i32 %_14.0, i32* %value.dbg.spill.i, align 4
  call void @llvm.dbg.declare(metadata i32* %value.dbg.spill.i, metadata !1186, metadata !DIExpression()) #10, !dbg !1228
  store i32* %_4, i32** %self.dbg.spill.i.i, align 4
  call void @llvm.dbg.declare(metadata i32** %self.dbg.spill.i.i, metadata !1190, metadata !DIExpression()) #10, !dbg !1229
  store i32 %_14.0, i32* %value.dbg.spill.i.i, align 4
  call void @llvm.dbg.declare(metadata i32* %value.dbg.spill.i.i, metadata !1197, metadata !DIExpression()) #10, !dbg !1231
  store i32* %_4, i32** %self.dbg.spill.i2, align 4
  call void @llvm.dbg.declare(metadata i32** %self.dbg.spill.i2, metadata !1201, metadata !DIExpression()), !dbg !1232
; call core::ptr::write_volatile
  call void @_ZN4core3ptr14write_volatile17h50533fac3ae79608E(i32* %_4, i32 %_14.0) #10, !dbg !1234
  br label %bb6, !dbg !1223

panic1:                                           ; preds = %bb4
; call core::panicking::panic
  call void @_ZN4core9panicking5panic17h9e72682d8e5e8cf1E([0 x i8]* nonnull align 1 bitcast ([35 x i8]* @str.1 to [0 x i8]*), i32 35, %"core::panic::location::Location"* align 4 dereferenceable(16) bitcast (<{ i8*, [12 x i8] }>* @alloc195 to %"core::panic::location::Location"*)) #11, !dbg !1225
  unreachable, !dbg !1225

bb6:                                              ; preds = %bb5
  ret void, !dbg !1235
}

; cortex_m::peripheral::nvic::<impl cortex_m::peripheral::NVIC>::set_priority
; Function Attrs: inlinehint nounwind
define internal void @"_ZN8cortex_m10peripheral4nvic44_$LT$impl$u20$cortex_m..peripheral..NVIC$GT$12set_priority17h755c18aead94bf5aE"(%"cortex_m::peripheral::NVIC"* nonnull align 1 %self, i8 %interrupt, i8 %prio) unnamed_addr #1 !dbg !1236 {
start:
  %self.dbg.spill.i2 = alloca i8*, align 4
  %self.dbg.spill.i1 = alloca %"cortex_m::peripheral::NVIC"*, align 4
  %value.dbg.spill.i.i = alloca i8, align 1
  %self.dbg.spill.i.i = alloca i8*, align 4
  %value.dbg.spill.i = alloca i8, align 1
  %self.dbg.spill.i = alloca i8*, align 4
  %nr.dbg.spill = alloca i16, align 2
  %prio.dbg.spill = alloca i8, align 1
  %interrupt.dbg.spill = alloca i8, align 1
  %self.dbg.spill = alloca %"cortex_m::peripheral::NVIC"*, align 4
  store %"cortex_m::peripheral::NVIC"* %self, %"cortex_m::peripheral::NVIC"** %self.dbg.spill, align 4
  call void @llvm.dbg.declare(metadata %"cortex_m::peripheral::NVIC"** %self.dbg.spill, metadata !1241, metadata !DIExpression()), !dbg !1246
  store i8 %interrupt, i8* %interrupt.dbg.spill, align 1
  call void @llvm.dbg.declare(metadata i8* %interrupt.dbg.spill, metadata !1242, metadata !DIExpression()), !dbg !1247
  store i8 %prio, i8* %prio.dbg.spill, align 1
  call void @llvm.dbg.declare(metadata i8* %prio.dbg.spill, metadata !1243, metadata !DIExpression()), !dbg !1248
; call <T as cortex_m::interrupt::InterruptNumber>::number
  %nr = call i16 @"_ZN58_$LT$T$u20$as$u20$cortex_m..interrupt..InterruptNumber$GT$6number17h7a5d7a0fd28511f6E"(i8 %interrupt) #10, !dbg !1249
  store i16 %nr, i16* %nr.dbg.spill, align 2, !dbg !1249
  call void @llvm.dbg.declare(metadata i16* %nr.dbg.spill, metadata !1244, metadata !DIExpression()), !dbg !1250
  br label %bb1, !dbg !1249

bb1:                                              ; preds = %start
  store %"cortex_m::peripheral::NVIC"* %self, %"cortex_m::peripheral::NVIC"** %self.dbg.spill.i1, align 4
  call void @llvm.dbg.declare(metadata %"cortex_m::peripheral::NVIC"** %self.dbg.spill.i1, metadata !1251, metadata !DIExpression()), !dbg !1302
  br label %bb2, !dbg !1304

bb2:                                              ; preds = %bb1
; call core::convert::num::<impl core::convert::From<u16> for usize>::from
  %_9 = call i32 @"_ZN4core7convert3num66_$LT$impl$u20$core..convert..From$LT$u16$GT$$u20$for$u20$usize$GT$4from17hb2e480a8ed69ba2dE"(i16 %nr) #10, !dbg !1305
  br label %bb3, !dbg !1305

bb3:                                              ; preds = %bb2
  %_12 = icmp ult i32 %_9, 496, !dbg !1304
  %0 = call i1 @llvm.expect.i1(i1 %_12, i1 true), !dbg !1304
  br i1 %0, label %bb4, label %panic, !dbg !1304

bb4:                                              ; preds = %bb3
  %1 = getelementptr inbounds %"cortex_m::peripheral::nvic::RegisterBlock", %"cortex_m::peripheral::nvic::RegisterBlock"* inttoptr (i32 -536813312 to %"cortex_m::peripheral::nvic::RegisterBlock"*), i32 0, i32 10, !dbg !1304
  %_6 = getelementptr inbounds [496 x i8], [496 x i8]* %1, i32 0, i32 %_9, !dbg !1304
  store i8* %_6, i8** %self.dbg.spill.i, align 4
  call void @llvm.dbg.declare(metadata i8** %self.dbg.spill.i, metadata !1306, metadata !DIExpression()) #10, !dbg !1313
  store i8 %prio, i8* %value.dbg.spill.i, align 1
  call void @llvm.dbg.declare(metadata i8* %value.dbg.spill.i, metadata !1312, metadata !DIExpression()) #10, !dbg !1315
  store i8* %_6, i8** %self.dbg.spill.i.i, align 4
  call void @llvm.dbg.declare(metadata i8** %self.dbg.spill.i.i, metadata !1316, metadata !DIExpression()) #10, !dbg !1323
  store i8 %prio, i8* %value.dbg.spill.i.i, align 1
  call void @llvm.dbg.declare(metadata i8* %value.dbg.spill.i.i, metadata !1322, metadata !DIExpression()) #10, !dbg !1325
  store i8* %_6, i8** %self.dbg.spill.i2, align 4
  call void @llvm.dbg.declare(metadata i8** %self.dbg.spill.i2, metadata !1326, metadata !DIExpression()), !dbg !1333
; call core::ptr::write_volatile
  call void @_ZN4core3ptr14write_volatile17h3f979f4073c91a57E(i8* %_6, i8 %prio) #10, !dbg !1335
  br label %bb5, !dbg !1304

panic:                                            ; preds = %bb3
; call core::panicking::panic_bounds_check
  call void @_ZN4core9panicking18panic_bounds_check17h5f129c306aeb31cbE(i32 %_9, i32 496, %"core::panic::location::Location"* align 4 dereferenceable(16) bitcast (<{ i8*, [12 x i8] }>* @alloc197 to %"core::panic::location::Location"*)) #11, !dbg !1304
  unreachable, !dbg !1304

bb5:                                              ; preds = %bb4
  ret void, !dbg !1336
}

; cortex_m::peripheral::Peripherals::steal
; Function Attrs: inlinehint nounwind
define internal void @_ZN8cortex_m10peripheral11Peripherals5steal17hf4660d70e6ed8445E() unnamed_addr #1 !dbg !1337 {
start:
  store i8 1, i8* @_ZN8cortex_m10peripheral5TAKEN17h164fa9be397b07d5E, align 1, !dbg !1338
  ret void, !dbg !1339
}

; cortex_m::register::basepri::read
; Function Attrs: inlinehint nounwind
define internal i8 @_ZN8cortex_m8register7basepri4read17hab22038c38f4f26dE() unnamed_addr #1 !dbg !1340 {
start:
  %0 = call zeroext i8 @__basepri_r() #10, !dbg !1345
  br label %bb1, !dbg !1345

bb1:                                              ; preds = %start
  ret i8 %0, !dbg !1346
}

; cortex_m::register::basepri::write
; Function Attrs: inlinehint nounwind
define internal void @_ZN8cortex_m8register7basepri5write17h8c83f3cc5950a711E(i8 %basepri) unnamed_addr #1 !dbg !1347 {
start:
  %basepri.dbg.spill = alloca i8, align 1
  store i8 %basepri, i8* %basepri.dbg.spill, align 1
  call void @llvm.dbg.declare(metadata i8* %basepri.dbg.spill, metadata !1351, metadata !DIExpression()), !dbg !1352
  call void @__basepri_w(i8 zeroext %basepri) #10, !dbg !1353
  br label %bb1, !dbg !1353

bb1:                                              ; preds = %start
  ret void, !dbg !1354
}

; cortex_m::register::primask::Primask::is_active
; Function Attrs: inlinehint nounwind
define internal zeroext i1 @_ZN8cortex_m8register7primask7Primask9is_active17h26a0e7131c940062E(i1 zeroext %0) unnamed_addr #1 !dbg !1355 {
start:
  %self = alloca i8, align 1
  %1 = zext i1 %0 to i8
  store i8 %1, i8* %self, align 1
  call void @llvm.dbg.declare(metadata i8* %self, metadata !1361, metadata !DIExpression()), !dbg !1362
; call <cortex_m::register::primask::Primask as core::cmp::PartialEq>::eq
  %2 = call zeroext i1 @"_ZN77_$LT$cortex_m..register..primask..Primask$u20$as$u20$core..cmp..PartialEq$GT$2eq17h65a53084a9ea4fb7E"(i8* align 1 dereferenceable(1) %self, i8* align 1 dereferenceable(1) getelementptr inbounds (<{ [1 x i8] }>, <{ [1 x i8] }>* @alloc143, i32 0, i32 0, i32 0)) #10, !dbg !1363
  br label %bb1, !dbg !1363

bb1:                                              ; preds = %start
  ret i1 %2, !dbg !1364
}

; cortex_m::register::primask::read
; Function Attrs: inlinehint nounwind
define internal zeroext i1 @_ZN8cortex_m8register7primask4read17he7f40456c7aa8a00E() unnamed_addr #1 !dbg !1365 {
start:
  %r.dbg.spill = alloca i32, align 4
  %0 = alloca i8, align 1
  %r = call i32 @__primask_r() #10, !dbg !1371
  store i32 %r, i32* %r.dbg.spill, align 4, !dbg !1371
  call void @llvm.dbg.declare(metadata i32* %r.dbg.spill, metadata !1369, metadata !DIExpression()), !dbg !1372
  br label %bb1, !dbg !1371

bb1:                                              ; preds = %start
  %_3 = and i32 %r, 1, !dbg !1373
  %_2 = icmp eq i32 %_3, 1, !dbg !1373
  br i1 %_2, label %bb2, label %bb3, !dbg !1373

bb3:                                              ; preds = %bb1
  store i8 0, i8* %0, align 1, !dbg !1374
  br label %bb4, !dbg !1375

bb2:                                              ; preds = %bb1
  store i8 1, i8* %0, align 1, !dbg !1376
  br label %bb4, !dbg !1375

bb4:                                              ; preds = %bb3, %bb2
  %1 = load i8, i8* %0, align 1, !dbg !1377, !range !436
  %2 = trunc i8 %1 to i1, !dbg !1377
  ret i1 %2, !dbg !1377
}

; <cortex_m::register::primask::Primask as core::cmp::PartialEq>::eq
; Function Attrs: inlinehint nounwind
define internal zeroext i1 @"_ZN77_$LT$cortex_m..register..primask..Primask$u20$as$u20$core..cmp..PartialEq$GT$2eq17h65a53084a9ea4fb7E"(i8* align 1 dereferenceable(1) %self, i8* align 1 dereferenceable(1) %other) unnamed_addr #1 !dbg !1378 {
start:
  %__arg_1_vi.dbg.spill = alloca i32, align 4
  %__self_vi.dbg.spill = alloca i32, align 4
  %other.dbg.spill = alloca i8*, align 4
  %self.dbg.spill = alloca i8*, align 4
  %0 = alloca i8, align 1
  store i8* %self, i8** %self.dbg.spill, align 4
  call void @llvm.dbg.declare(metadata i8** %self.dbg.spill, metadata !1384, metadata !DIExpression()), !dbg !1391
  store i8* %other, i8** %other.dbg.spill, align 4
  call void @llvm.dbg.declare(metadata i8** %other.dbg.spill, metadata !1385, metadata !DIExpression()), !dbg !1391
  %1 = load i8, i8* %self, align 1, !dbg !1391, !range !436
  %2 = trunc i8 %1 to i1, !dbg !1391
  %__self_vi = zext i1 %2 to i32, !dbg !1391
  store i32 %__self_vi, i32* %__self_vi.dbg.spill, align 4, !dbg !1391
  call void @llvm.dbg.declare(metadata i32* %__self_vi.dbg.spill, metadata !1386, metadata !DIExpression()), !dbg !1392
  %3 = load i8, i8* %other, align 1, !dbg !1392, !range !436
  %4 = trunc i8 %3 to i1, !dbg !1392
  %__arg_1_vi = zext i1 %4 to i32, !dbg !1392
  store i32 %__arg_1_vi, i32* %__arg_1_vi.dbg.spill, align 4, !dbg !1392
  call void @llvm.dbg.declare(metadata i32* %__arg_1_vi.dbg.spill, metadata !1389, metadata !DIExpression()), !dbg !1393
  %_10 = icmp eq i32 %__self_vi, %__arg_1_vi, !dbg !1393
  br i1 %_10, label %bb1, label %bb2, !dbg !1393

bb2:                                              ; preds = %start
  store i8 0, i8* %0, align 1, !dbg !1393
  br label %bb3, !dbg !1393

bb1:                                              ; preds = %start
  store i8 1, i8* %0, align 1, !dbg !1393
  br label %bb3, !dbg !1393

bb3:                                              ; preds = %bb2, %bb1
  %5 = load i8, i8* %0, align 1, !dbg !1394, !range !436
  %6 = trunc i8 %5 to i1, !dbg !1394
  ret i1 %6, !dbg !1394
}

; core::mem::replace
; Function Attrs: inlinehint nounwind
define internal i8 @_ZN4core3mem7replace17h6f6f0ffe151c8c1aE(i8* align 1 dereferenceable(1) %dest, i8 %src) unnamed_addr #1 !dbg !1395 {
start:
  %result.dbg.spill = alloca i8, align 1
  %src.dbg.spill = alloca i8, align 1
  %dest.dbg.spill = alloca i8*, align 4
  store i8* %dest, i8** %dest.dbg.spill, align 4
  call void @llvm.dbg.declare(metadata i8** %dest.dbg.spill, metadata !1401, metadata !DIExpression()), !dbg !1405
  store i8 %src, i8* %src.dbg.spill, align 1
  call void @llvm.dbg.declare(metadata i8* %src.dbg.spill, metadata !1402, metadata !DIExpression()), !dbg !1406
; call core::ptr::read
  %result = call i8 @_ZN4core3ptr4read17h7efa0474a61340eeE(i8* %dest) #10, !dbg !1407
  store i8 %result, i8* %result.dbg.spill, align 1, !dbg !1407
  call void @llvm.dbg.declare(metadata i8* %result.dbg.spill, metadata !1403, metadata !DIExpression()), !dbg !1408
  br label %bb1, !dbg !1407

bb1:                                              ; preds = %start
; call core::ptr::write
  call void @_ZN4core3ptr5write17h44c3a12bdde493dfE(i8* %dest, i8 %src) #10, !dbg !1409
  br label %bb2, !dbg !1409

bb2:                                              ; preds = %bb1
  ret i8 %result, !dbg !1410
}

; heapless::spsc::Queue<T,_>::increment
; Function Attrs: inlinehint nounwind
define internal i32 @"_ZN8heapless4spsc18Queue$LT$T$C$_$GT$9increment17h508ec96413021199E"(i32 %val) unnamed_addr #1 !dbg !1411 {
start:
  %val.dbg.spill = alloca i32, align 4
  store i32 %val, i32* %val.dbg.spill, align 4
  call void @llvm.dbg.declare(metadata i32* %val.dbg.spill, metadata !1416, metadata !DIExpression()), !dbg !1417
  %0 = call { i32, i1 } @llvm.uadd.with.overflow.i32(i32 %val, i32 1), !dbg !1418
  %_4.0 = extractvalue { i32, i1 } %0, 0, !dbg !1418
  %_4.1 = extractvalue { i32, i1 } %0, 1, !dbg !1418
  %1 = call i1 @llvm.expect.i1(i1 %_4.1, i1 false), !dbg !1418
  br i1 %1, label %panic, label %bb1, !dbg !1418

bb1:                                              ; preds = %start
  br label %bb2, !dbg !1418

panic:                                            ; preds = %start
; call core::panicking::panic
  call void @_ZN4core9panicking5panic17h9e72682d8e5e8cf1E([0 x i8]* nonnull align 1 bitcast ([28 x i8]* @str.0 to [0 x i8]*), i32 28, %"core::panic::location::Location"* align 4 dereferenceable(16) bitcast (<{ i8*, [12 x i8] }>* @alloc199 to %"core::panic::location::Location"*)) #11, !dbg !1418
  unreachable, !dbg !1418

bb2:                                              ; preds = %bb1
  %2 = urem i32 %_4.0, 3, !dbg !1418
  ret i32 %2, !dbg !1419
}

; heapless::spsc::Queue<T,_>::increment
; Function Attrs: inlinehint nounwind
define internal i32 @"_ZN8heapless4spsc18Queue$LT$T$C$_$GT$9increment17h62b7694f13bd5c4aE"(i32 %val) unnamed_addr #1 !dbg !1420 {
start:
  %val.dbg.spill = alloca i32, align 4
  store i32 %val, i32* %val.dbg.spill, align 4
  call void @llvm.dbg.declare(metadata i32* %val.dbg.spill, metadata !1422, metadata !DIExpression()), !dbg !1423
  %0 = call { i32, i1 } @llvm.uadd.with.overflow.i32(i32 %val, i32 1), !dbg !1424
  %_4.0 = extractvalue { i32, i1 } %0, 0, !dbg !1424
  %_4.1 = extractvalue { i32, i1 } %0, 1, !dbg !1424
  %1 = call i1 @llvm.expect.i1(i1 %_4.1, i1 false), !dbg !1424
  br i1 %1, label %panic, label %bb1, !dbg !1424

bb1:                                              ; preds = %start
  br label %bb2, !dbg !1424

panic:                                            ; preds = %start
; call core::panicking::panic
  call void @_ZN4core9panicking5panic17h9e72682d8e5e8cf1E([0 x i8]* nonnull align 1 bitcast ([28 x i8]* @str.0 to [0 x i8]*), i32 28, %"core::panic::location::Location"* align 4 dereferenceable(16) bitcast (<{ i8*, [12 x i8] }>* @alloc199 to %"core::panic::location::Location"*)) #11, !dbg !1424
  unreachable, !dbg !1424

bb2:                                              ; preds = %bb1
  %2 = urem i32 %_4.0, 2, !dbg !1424
  ret i32 %2, !dbg !1425
}

; heapless::spsc::Queue<T,_>::len
; Function Attrs: inlinehint nounwind
define internal i32 @"_ZN8heapless4spsc18Queue$LT$T$C$_$GT$3len17h0313f1eb84a18b2bE"(%"heapless::spsc::Queue<u8, 2_usize>"* align 4 dereferenceable(12) %self) unnamed_addr #1 !dbg !1426 {
start:
  %rhs.dbg.spill.i1 = alloca i32, align 4
  %self.dbg.spill.i2 = alloca i32, align 4
  %rhs.dbg.spill.i = alloca i32, align 4
  %self.dbg.spill.i = alloca i32, align 4
  %current_tail.dbg.spill = alloca i32, align 4
  %current_head.dbg.spill = alloca i32, align 4
  %self.dbg.spill = alloca %"heapless::spsc::Queue<u8, 2_usize>"*, align 4
  %_7 = alloca i8, align 1
  %_4 = alloca i8, align 1
  store %"heapless::spsc::Queue<u8, 2_usize>"* %self, %"heapless::spsc::Queue<u8, 2_usize>"** %self.dbg.spill, align 4
  call void @llvm.dbg.declare(metadata %"heapless::spsc::Queue<u8, 2_usize>"** %self.dbg.spill, metadata !1431, metadata !DIExpression()), !dbg !1436
  %_3 = bitcast %"heapless::spsc::Queue<u8, 2_usize>"* %self to %"core::sync::atomic::AtomicUsize"*, !dbg !1437
  store i8 0, i8* %_4, align 1, !dbg !1438
  %0 = load i8, i8* %_4, align 1, !dbg !1437, !range !1439
; call core::sync::atomic::AtomicUsize::load
  %current_head = call i32 @_ZN4core4sync6atomic11AtomicUsize4load17hbff932a919f9f519E(%"core::sync::atomic::AtomicUsize"* align 4 dereferenceable(4) %_3, i8 %0) #10, !dbg !1437
  store i32 %current_head, i32* %current_head.dbg.spill, align 4, !dbg !1437
  call void @llvm.dbg.declare(metadata i32* %current_head.dbg.spill, metadata !1432, metadata !DIExpression()), !dbg !1440
  br label %bb1, !dbg !1437

bb1:                                              ; preds = %start
  %_6 = getelementptr inbounds %"heapless::spsc::Queue<u8, 2_usize>", %"heapless::spsc::Queue<u8, 2_usize>"* %self, i32 0, i32 1, !dbg !1441
  store i8 0, i8* %_7, align 1, !dbg !1442
  %1 = load i8, i8* %_7, align 1, !dbg !1441, !range !1439
; call core::sync::atomic::AtomicUsize::load
  %current_tail = call i32 @_ZN4core4sync6atomic11AtomicUsize4load17hbff932a919f9f519E(%"core::sync::atomic::AtomicUsize"* align 4 dereferenceable(4) %_6, i8 %1) #10, !dbg !1441
  store i32 %current_tail, i32* %current_tail.dbg.spill, align 4, !dbg !1441
  call void @llvm.dbg.declare(metadata i32* %current_tail.dbg.spill, metadata !1434, metadata !DIExpression()), !dbg !1443
  br label %bb2, !dbg !1441

bb2:                                              ; preds = %bb1
  store i32 %current_tail, i32* %self.dbg.spill.i2, align 4
  call void @llvm.dbg.declare(metadata i32* %self.dbg.spill.i2, metadata !1444, metadata !DIExpression()), !dbg !1453
  store i32 %current_head, i32* %rhs.dbg.spill.i1, align 4
  call void @llvm.dbg.declare(metadata i32* %rhs.dbg.spill.i1, metadata !1452, metadata !DIExpression()), !dbg !1455
  %2 = sub i32 %current_tail, %current_head, !dbg !1456
  br label %bb3, !dbg !1457

bb3:                                              ; preds = %bb2
  store i32 %2, i32* %self.dbg.spill.i, align 4
  call void @llvm.dbg.declare(metadata i32* %self.dbg.spill.i, metadata !1458, metadata !DIExpression()), !dbg !1462
  store i32 2, i32* %rhs.dbg.spill.i, align 4
  call void @llvm.dbg.declare(metadata i32* %rhs.dbg.spill.i, metadata !1461, metadata !DIExpression()), !dbg !1464
  %3 = add i32 %2, 2, !dbg !1465
  br label %bb4, !dbg !1457

bb4:                                              ; preds = %bb3
  br label %bb5, !dbg !1457

bb5:                                              ; preds = %bb4
  %4 = urem i32 %3, 2, !dbg !1457
  ret i32 %4, !dbg !1466
}

; heapless::spsc::Queue<T,_>::len
; Function Attrs: inlinehint nounwind
define internal i32 @"_ZN8heapless4spsc18Queue$LT$T$C$_$GT$3len17hae3eb13f496ab5d6E"(%"heapless::spsc::Queue<(app::P1_T, u8), 3_usize>"* align 4 dereferenceable(16) %self) unnamed_addr #1 !dbg !1467 {
start:
  %rhs.dbg.spill.i1 = alloca i32, align 4
  %self.dbg.spill.i2 = alloca i32, align 4
  %rhs.dbg.spill.i = alloca i32, align 4
  %self.dbg.spill.i = alloca i32, align 4
  %current_tail.dbg.spill = alloca i32, align 4
  %current_head.dbg.spill = alloca i32, align 4
  %self.dbg.spill = alloca %"heapless::spsc::Queue<(app::P1_T, u8), 3_usize>"*, align 4
  %_7 = alloca i8, align 1
  %_4 = alloca i8, align 1
  store %"heapless::spsc::Queue<(app::P1_T, u8), 3_usize>"* %self, %"heapless::spsc::Queue<(app::P1_T, u8), 3_usize>"** %self.dbg.spill, align 4
  call void @llvm.dbg.declare(metadata %"heapless::spsc::Queue<(app::P1_T, u8), 3_usize>"** %self.dbg.spill, metadata !1472, metadata !DIExpression()), !dbg !1477
  %_3 = bitcast %"heapless::spsc::Queue<(app::P1_T, u8), 3_usize>"* %self to %"core::sync::atomic::AtomicUsize"*, !dbg !1478
  store i8 0, i8* %_4, align 1, !dbg !1479
  %0 = load i8, i8* %_4, align 1, !dbg !1478, !range !1439
; call core::sync::atomic::AtomicUsize::load
  %current_head = call i32 @_ZN4core4sync6atomic11AtomicUsize4load17hbff932a919f9f519E(%"core::sync::atomic::AtomicUsize"* align 4 dereferenceable(4) %_3, i8 %0) #10, !dbg !1478
  store i32 %current_head, i32* %current_head.dbg.spill, align 4, !dbg !1478
  call void @llvm.dbg.declare(metadata i32* %current_head.dbg.spill, metadata !1473, metadata !DIExpression()), !dbg !1480
  br label %bb1, !dbg !1478

bb1:                                              ; preds = %start
  %_6 = getelementptr inbounds %"heapless::spsc::Queue<(app::P1_T, u8), 3_usize>", %"heapless::spsc::Queue<(app::P1_T, u8), 3_usize>"* %self, i32 0, i32 1, !dbg !1481
  store i8 0, i8* %_7, align 1, !dbg !1482
  %1 = load i8, i8* %_7, align 1, !dbg !1481, !range !1439
; call core::sync::atomic::AtomicUsize::load
  %current_tail = call i32 @_ZN4core4sync6atomic11AtomicUsize4load17hbff932a919f9f519E(%"core::sync::atomic::AtomicUsize"* align 4 dereferenceable(4) %_6, i8 %1) #10, !dbg !1481
  store i32 %current_tail, i32* %current_tail.dbg.spill, align 4, !dbg !1481
  call void @llvm.dbg.declare(metadata i32* %current_tail.dbg.spill, metadata !1475, metadata !DIExpression()), !dbg !1483
  br label %bb2, !dbg !1481

bb2:                                              ; preds = %bb1
  store i32 %current_tail, i32* %self.dbg.spill.i2, align 4
  call void @llvm.dbg.declare(metadata i32* %self.dbg.spill.i2, metadata !1444, metadata !DIExpression()), !dbg !1484
  store i32 %current_head, i32* %rhs.dbg.spill.i1, align 4
  call void @llvm.dbg.declare(metadata i32* %rhs.dbg.spill.i1, metadata !1452, metadata !DIExpression()), !dbg !1486
  %2 = sub i32 %current_tail, %current_head, !dbg !1487
  br label %bb3, !dbg !1488

bb3:                                              ; preds = %bb2
  store i32 %2, i32* %self.dbg.spill.i, align 4
  call void @llvm.dbg.declare(metadata i32* %self.dbg.spill.i, metadata !1458, metadata !DIExpression()), !dbg !1489
  store i32 3, i32* %rhs.dbg.spill.i, align 4
  call void @llvm.dbg.declare(metadata i32* %rhs.dbg.spill.i, metadata !1461, metadata !DIExpression()), !dbg !1491
  %3 = add i32 %2, 3, !dbg !1492
  br label %bb4, !dbg !1488

bb4:                                              ; preds = %bb3
  br label %bb5, !dbg !1488

bb5:                                              ; preds = %bb4
  %4 = urem i32 %3, 3, !dbg !1488
  ret i32 %4, !dbg !1493
}

; heapless::spsc::Queue<T,_>::iter_mut
; Function Attrs: nounwind
define internal void @"_ZN8heapless4spsc18Queue$LT$T$C$_$GT$8iter_mut17h39603bd78c1eaa58E"(%"heapless::spsc::IterMut<u8, 2_usize>"* noalias nocapture sret(%"heapless::spsc::IterMut<u8, 2_usize>") dereferenceable(12) %0, %"heapless::spsc::Queue<u8, 2_usize>"* align 4 dereferenceable(12) %self) unnamed_addr #0 !dbg !1494 {
start:
  %len.dbg.spill = alloca i32, align 4
  %self.dbg.spill = alloca %"heapless::spsc::Queue<u8, 2_usize>"*, align 4
  store %"heapless::spsc::Queue<u8, 2_usize>"* %self, %"heapless::spsc::Queue<u8, 2_usize>"** %self.dbg.spill, align 4
  call void @llvm.dbg.declare(metadata %"heapless::spsc::Queue<u8, 2_usize>"** %self.dbg.spill, metadata !1504, metadata !DIExpression()), !dbg !1507
; call heapless::spsc::Queue<T,_>::len
  %len = call i32 @"_ZN8heapless4spsc18Queue$LT$T$C$_$GT$3len17h0313f1eb84a18b2bE"(%"heapless::spsc::Queue<u8, 2_usize>"* align 4 dereferenceable(12) %self) #10, !dbg !1508
  store i32 %len, i32* %len.dbg.spill, align 4, !dbg !1508
  call void @llvm.dbg.declare(metadata i32* %len.dbg.spill, metadata !1505, metadata !DIExpression()), !dbg !1509
  br label %bb1, !dbg !1508

bb1:                                              ; preds = %start
  %1 = bitcast %"heapless::spsc::IterMut<u8, 2_usize>"* %0 to %"heapless::spsc::Queue<u8, 2_usize>"**, !dbg !1510
  store %"heapless::spsc::Queue<u8, 2_usize>"* %self, %"heapless::spsc::Queue<u8, 2_usize>"** %1, align 4, !dbg !1510
  %2 = getelementptr inbounds %"heapless::spsc::IterMut<u8, 2_usize>", %"heapless::spsc::IterMut<u8, 2_usize>"* %0, i32 0, i32 1, !dbg !1510
  store i32 0, i32* %2, align 4, !dbg !1510
  %3 = getelementptr inbounds %"heapless::spsc::IterMut<u8, 2_usize>", %"heapless::spsc::IterMut<u8, 2_usize>"* %0, i32 0, i32 2, !dbg !1510
  store i32 %len, i32* %3, align 4, !dbg !1510
  ret void, !dbg !1511
}

; heapless::spsc::Queue<T,_>::iter_mut
; Function Attrs: nounwind
define internal void @"_ZN8heapless4spsc18Queue$LT$T$C$_$GT$8iter_mut17hf08aa4f1cb5ae041E"(%"heapless::spsc::IterMut<(app::P1_T, u8), 3_usize>"* noalias nocapture sret(%"heapless::spsc::IterMut<(app::P1_T, u8), 3_usize>") dereferenceable(12) %0, %"heapless::spsc::Queue<(app::P1_T, u8), 3_usize>"* align 4 dereferenceable(16) %self) unnamed_addr #0 !dbg !1512 {
start:
  %len.dbg.spill = alloca i32, align 4
  %self.dbg.spill = alloca %"heapless::spsc::Queue<(app::P1_T, u8), 3_usize>"*, align 4
  store %"heapless::spsc::Queue<(app::P1_T, u8), 3_usize>"* %self, %"heapless::spsc::Queue<(app::P1_T, u8), 3_usize>"** %self.dbg.spill, align 4
  call void @llvm.dbg.declare(metadata %"heapless::spsc::Queue<(app::P1_T, u8), 3_usize>"** %self.dbg.spill, metadata !1522, metadata !DIExpression()), !dbg !1525
; call heapless::spsc::Queue<T,_>::len
  %len = call i32 @"_ZN8heapless4spsc18Queue$LT$T$C$_$GT$3len17hae3eb13f496ab5d6E"(%"heapless::spsc::Queue<(app::P1_T, u8), 3_usize>"* align 4 dereferenceable(16) %self) #10, !dbg !1526
  store i32 %len, i32* %len.dbg.spill, align 4, !dbg !1526
  call void @llvm.dbg.declare(metadata i32* %len.dbg.spill, metadata !1523, metadata !DIExpression()), !dbg !1527
  br label %bb1, !dbg !1526

bb1:                                              ; preds = %start
  %1 = bitcast %"heapless::spsc::IterMut<(app::P1_T, u8), 3_usize>"* %0 to %"heapless::spsc::Queue<(app::P1_T, u8), 3_usize>"**, !dbg !1528
  store %"heapless::spsc::Queue<(app::P1_T, u8), 3_usize>"* %self, %"heapless::spsc::Queue<(app::P1_T, u8), 3_usize>"** %1, align 4, !dbg !1528
  %2 = getelementptr inbounds %"heapless::spsc::IterMut<(app::P1_T, u8), 3_usize>", %"heapless::spsc::IterMut<(app::P1_T, u8), 3_usize>"* %0, i32 0, i32 1, !dbg !1528
  store i32 0, i32* %2, align 4, !dbg !1528
  %3 = getelementptr inbounds %"heapless::spsc::IterMut<(app::P1_T, u8), 3_usize>", %"heapless::spsc::IterMut<(app::P1_T, u8), 3_usize>"* %0, i32 0, i32 2, !dbg !1528
  store i32 %len, i32* %3, align 4, !dbg !1528
  ret void, !dbg !1529
}

; heapless::spsc::Queue<T,_>::dequeue
; Function Attrs: inlinehint nounwind
define internal { i8, i8 } @"_ZN8heapless4spsc18Queue$LT$T$C$_$GT$7dequeue17hbddbe69e01b0948fE"(%"heapless::spsc::Queue<u8, 2_usize>"* align 4 dereferenceable(12) %self) unnamed_addr #1 !dbg !1530 {
start:
  %self.dbg.spill = alloca %"heapless::spsc::Queue<u8, 2_usize>"*, align 4
  store %"heapless::spsc::Queue<u8, 2_usize>"* %self, %"heapless::spsc::Queue<u8, 2_usize>"** %self.dbg.spill, align 4
  call void @llvm.dbg.declare(metadata %"heapless::spsc::Queue<u8, 2_usize>"** %self.dbg.spill, metadata !1534, metadata !DIExpression()), !dbg !1535
; call heapless::spsc::Queue<T,_>::inner_dequeue
  %0 = call { i8, i8 } @"_ZN8heapless4spsc18Queue$LT$T$C$_$GT$13inner_dequeue17h69553b06f8d214e3E"(%"heapless::spsc::Queue<u8, 2_usize>"* align 4 dereferenceable(12) %self) #10, !dbg !1536
  %1 = extractvalue { i8, i8 } %0, 0, !dbg !1536
  %2 = trunc i8 %1 to i1, !dbg !1536
  %3 = extractvalue { i8, i8 } %0, 1, !dbg !1536
  br label %bb1, !dbg !1536

bb1:                                              ; preds = %start
  %4 = zext i1 %2 to i8, !dbg !1537
  %5 = insertvalue { i8, i8 } undef, i8 %4, 0, !dbg !1537
  %6 = insertvalue { i8, i8 } %5, i8 %3, 1, !dbg !1537
  ret { i8, i8 } %6, !dbg !1537
}

; heapless::spsc::Queue<T,_>::inner_enqueue_unchecked
; Function Attrs: nounwind
define internal void @"_ZN8heapless4spsc18Queue$LT$T$C$_$GT$23inner_enqueue_unchecked17h89c8e0b55bfe44b7E"(%"heapless::spsc::Queue<u8, 2_usize>"* align 4 dereferenceable(12) %self, i8 %val) unnamed_addr #0 !dbg !1538 {
start:
  %self.dbg.spill.i2 = alloca i8*, align 4
  %val.dbg.spill.i1 = alloca i8, align 1
  %self.dbg.spill.i = alloca i8*, align 4
  %value.dbg.spill.i.i = alloca i8, align 1
  %0 = alloca i8, align 1
  %val.dbg.spill.i = alloca i8, align 1
  %1 = alloca i8, align 1
  %current_tail.dbg.spill = alloca i32, align 4
  %val.dbg.spill = alloca i8, align 1
  %self.dbg.spill = alloca %"heapless::spsc::Queue<u8, 2_usize>"*, align 4
  %_19 = alloca i8, align 1
  %_5 = alloca i8, align 1
  store %"heapless::spsc::Queue<u8, 2_usize>"* %self, %"heapless::spsc::Queue<u8, 2_usize>"** %self.dbg.spill, align 4
  call void @llvm.dbg.declare(metadata %"heapless::spsc::Queue<u8, 2_usize>"** %self.dbg.spill, metadata !1542, metadata !DIExpression()), !dbg !1546
  store i8 %val, i8* %val.dbg.spill, align 1
  call void @llvm.dbg.declare(metadata i8* %val.dbg.spill, metadata !1543, metadata !DIExpression()), !dbg !1547
  %_4 = getelementptr inbounds %"heapless::spsc::Queue<u8, 2_usize>", %"heapless::spsc::Queue<u8, 2_usize>"* %self, i32 0, i32 1, !dbg !1548
  store i8 0, i8* %_5, align 1, !dbg !1549
  %2 = load i8, i8* %_5, align 1, !dbg !1548, !range !1439
; call core::sync::atomic::AtomicUsize::load
  %current_tail = call i32 @_ZN4core4sync6atomic11AtomicUsize4load17hbff932a919f9f519E(%"core::sync::atomic::AtomicUsize"* align 4 dereferenceable(4) %_4, i8 %2) #10, !dbg !1548
  store i32 %current_tail, i32* %current_tail.dbg.spill, align 4, !dbg !1548
  call void @llvm.dbg.declare(metadata i32* %current_tail.dbg.spill, metadata !1544, metadata !DIExpression()), !dbg !1550
  br label %bb1, !dbg !1548

bb1:                                              ; preds = %start
  %_11 = getelementptr inbounds %"heapless::spsc::Queue<u8, 2_usize>", %"heapless::spsc::Queue<u8, 2_usize>"* %self, i32 0, i32 2, !dbg !1551
  %_10.0 = bitcast [2 x i8]* %_11 to [0 x i8]*, !dbg !1551
; call core::slice::<impl [T]>::get_unchecked
  %_9 = call align 1 dereferenceable(1) i8* @"_ZN4core5slice29_$LT$impl$u20$$u5b$T$u5d$$GT$13get_unchecked17h92887aea7def6c01E"([0 x i8]* nonnull align 1 %_10.0, i32 2, i32 %current_tail) #10, !dbg !1551
  br label %bb2, !dbg !1551

bb2:                                              ; preds = %bb1
  store i8* %_9, i8** %self.dbg.spill.i2, align 4
  call void @llvm.dbg.declare(metadata i8** %self.dbg.spill.i2, metadata !1552, metadata !DIExpression()), !dbg !1559
  br label %bb3, !dbg !1561

bb3:                                              ; preds = %bb2
  store i8 %val, i8* %val.dbg.spill.i, align 1
  call void @llvm.dbg.declare(metadata i8* %val.dbg.spill.i, metadata !1562, metadata !DIExpression()), !dbg !1567
  store i8 %val, i8* %value.dbg.spill.i.i, align 1
  call void @llvm.dbg.declare(metadata i8* %value.dbg.spill.i.i, metadata !1569, metadata !DIExpression()), !dbg !1574
  store i8 %val, i8* %0, align 1, !dbg !1576
  %3 = load i8, i8* %0, align 1, !dbg !1577
  store i8 %3, i8* %1, align 1, !dbg !1578
  %4 = load i8, i8* %1, align 1, !dbg !1579
  br label %bb4, !dbg !1580

bb4:                                              ; preds = %bb3
  store i8* %_9, i8** %self.dbg.spill.i, align 4
  call void @llvm.dbg.declare(metadata i8** %self.dbg.spill.i, metadata !1581, metadata !DIExpression()) #10, !dbg !1587
  store i8 %4, i8* %val.dbg.spill.i1, align 1
  call void @llvm.dbg.declare(metadata i8* %val.dbg.spill.i1, metadata !1586, metadata !DIExpression()) #10, !dbg !1589
; call core::ptr::write
  call void @_ZN4core3ptr5write17h61a4480ba65cfdcfE(i8* %_9, i8 %4) #10, !dbg !1590
  br label %bb5, !dbg !1561

bb5:                                              ; preds = %bb4
  %_16 = getelementptr inbounds %"heapless::spsc::Queue<u8, 2_usize>", %"heapless::spsc::Queue<u8, 2_usize>"* %self, i32 0, i32 1, !dbg !1591
; call heapless::spsc::Queue<T,_>::increment
  %_17 = call i32 @"_ZN8heapless4spsc18Queue$LT$T$C$_$GT$9increment17h62b7694f13bd5c4aE"(i32 %current_tail) #10, !dbg !1592
  br label %bb6, !dbg !1592

bb6:                                              ; preds = %bb5
  store i8 1, i8* %_19, align 1, !dbg !1593
  %5 = load i8, i8* %_19, align 1, !dbg !1591, !range !1439
; call core::sync::atomic::AtomicUsize::store
  call void @_ZN4core4sync6atomic11AtomicUsize5store17h7e08c04f0f3a30f3E(%"core::sync::atomic::AtomicUsize"* align 4 dereferenceable(4) %_16, i32 %_17, i8 %5) #10, !dbg !1591
  br label %bb7, !dbg !1591

bb7:                                              ; preds = %bb6
  ret void, !dbg !1594
}

; heapless::spsc::Queue<T,_>::inner_enqueue_unchecked
; Function Attrs: nounwind
define internal void @"_ZN8heapless4spsc18Queue$LT$T$C$_$GT$23inner_enqueue_unchecked17hc697da99f6577d56E"(%"heapless::spsc::Queue<(app::P1_T, u8), 3_usize>"* align 4 dereferenceable(16) %self, i1 zeroext %val.0, i8 %val.1) unnamed_addr #0 !dbg !1595 {
start:
  %self.dbg.spill.i2 = alloca { i8, i8 }*, align 4
  %val.dbg.spill.i1 = alloca { i8, i8 }, align 1
  %self.dbg.spill.i = alloca { i8, i8 }*, align 4
  %value.dbg.spill.i.i = alloca { i8, i8 }, align 1
  %0 = alloca { i8, i8 }, align 1
  %val.dbg.spill.i = alloca { i8, i8 }, align 1
  %1 = alloca { i8, i8 }, align 1
  %current_tail.dbg.spill = alloca i32, align 4
  %val.dbg.spill = alloca { i8, i8 }, align 1
  %self.dbg.spill = alloca %"heapless::spsc::Queue<(app::P1_T, u8), 3_usize>"*, align 4
  %_19 = alloca i8, align 1
  %_5 = alloca i8, align 1
  store %"heapless::spsc::Queue<(app::P1_T, u8), 3_usize>"* %self, %"heapless::spsc::Queue<(app::P1_T, u8), 3_usize>"** %self.dbg.spill, align 4
  call void @llvm.dbg.declare(metadata %"heapless::spsc::Queue<(app::P1_T, u8), 3_usize>"** %self.dbg.spill, metadata !1599, metadata !DIExpression()), !dbg !1603
  %2 = getelementptr inbounds { i8, i8 }, { i8, i8 }* %val.dbg.spill, i32 0, i32 0
  %3 = zext i1 %val.0 to i8
  store i8 %3, i8* %2, align 1
  %4 = getelementptr inbounds { i8, i8 }, { i8, i8 }* %val.dbg.spill, i32 0, i32 1
  store i8 %val.1, i8* %4, align 1
  call void @llvm.dbg.declare(metadata { i8, i8 }* %val.dbg.spill, metadata !1600, metadata !DIExpression()), !dbg !1604
  %_4 = getelementptr inbounds %"heapless::spsc::Queue<(app::P1_T, u8), 3_usize>", %"heapless::spsc::Queue<(app::P1_T, u8), 3_usize>"* %self, i32 0, i32 1, !dbg !1605
  store i8 0, i8* %_5, align 1, !dbg !1606
  %5 = load i8, i8* %_5, align 1, !dbg !1605, !range !1439
; call core::sync::atomic::AtomicUsize::load
  %current_tail = call i32 @_ZN4core4sync6atomic11AtomicUsize4load17hbff932a919f9f519E(%"core::sync::atomic::AtomicUsize"* align 4 dereferenceable(4) %_4, i8 %5) #10, !dbg !1605
  store i32 %current_tail, i32* %current_tail.dbg.spill, align 4, !dbg !1605
  call void @llvm.dbg.declare(metadata i32* %current_tail.dbg.spill, metadata !1601, metadata !DIExpression()), !dbg !1607
  br label %bb1, !dbg !1605

bb1:                                              ; preds = %start
  %_11 = getelementptr inbounds %"heapless::spsc::Queue<(app::P1_T, u8), 3_usize>", %"heapless::spsc::Queue<(app::P1_T, u8), 3_usize>"* %self, i32 0, i32 2, !dbg !1608
  %_10.0 = bitcast [3 x { i8, i8 }]* %_11 to [0 x { i8, i8 }]*, !dbg !1608
; call core::slice::<impl [T]>::get_unchecked
  %_9 = call align 1 dereferenceable(2) { i8, i8 }* @"_ZN4core5slice29_$LT$impl$u20$$u5b$T$u5d$$GT$13get_unchecked17h990719cc23fef4feE"([0 x { i8, i8 }]* nonnull align 1 %_10.0, i32 3, i32 %current_tail) #10, !dbg !1608
  br label %bb2, !dbg !1608

bb2:                                              ; preds = %bb1
  store { i8, i8 }* %_9, { i8, i8 }** %self.dbg.spill.i2, align 4
  call void @llvm.dbg.declare(metadata { i8, i8 }** %self.dbg.spill.i2, metadata !1609, metadata !DIExpression()), !dbg !1616
  br label %bb3, !dbg !1618

bb3:                                              ; preds = %bb2
  %6 = getelementptr inbounds { i8, i8 }, { i8, i8 }* %val.dbg.spill.i, i32 0, i32 0
  %7 = zext i1 %val.0 to i8
  store i8 %7, i8* %6, align 1
  %8 = getelementptr inbounds { i8, i8 }, { i8, i8 }* %val.dbg.spill.i, i32 0, i32 1
  store i8 %val.1, i8* %8, align 1
  call void @llvm.dbg.declare(metadata { i8, i8 }* %val.dbg.spill.i, metadata !1619, metadata !DIExpression()), !dbg !1624
  %9 = getelementptr inbounds { i8, i8 }, { i8, i8 }* %value.dbg.spill.i.i, i32 0, i32 0
  %10 = zext i1 %val.0 to i8
  store i8 %10, i8* %9, align 1
  %11 = getelementptr inbounds { i8, i8 }, { i8, i8 }* %value.dbg.spill.i.i, i32 0, i32 1
  store i8 %val.1, i8* %11, align 1
  call void @llvm.dbg.declare(metadata { i8, i8 }* %value.dbg.spill.i.i, metadata !1626, metadata !DIExpression()), !dbg !1631
  %12 = getelementptr inbounds { i8, i8 }, { i8, i8 }* %0, i32 0, i32 0, !dbg !1633
  %13 = zext i1 %val.0 to i8, !dbg !1633
  store i8 %13, i8* %12, align 1, !dbg !1633
  %14 = getelementptr inbounds { i8, i8 }, { i8, i8 }* %0, i32 0, i32 1, !dbg !1633
  store i8 %val.1, i8* %14, align 1, !dbg !1633
  %15 = getelementptr inbounds { i8, i8 }, { i8, i8 }* %0, i32 0, i32 0, !dbg !1634
  %16 = load i8, i8* %15, align 1, !dbg !1634, !range !436
  %17 = trunc i8 %16 to i1, !dbg !1634
  %18 = getelementptr inbounds { i8, i8 }, { i8, i8 }* %0, i32 0, i32 1, !dbg !1634
  %19 = load i8, i8* %18, align 1, !dbg !1634
  %20 = zext i1 %17 to i8, !dbg !1634
  %21 = insertvalue { i8, i8 } undef, i8 %20, 0, !dbg !1634
  %22 = insertvalue { i8, i8 } %21, i8 %19, 1, !dbg !1634
  %23 = getelementptr inbounds { i8, i8 }, { i8, i8 }* %1, i32 0, i32 0, !dbg !1635
  %24 = zext i1 %17 to i8, !dbg !1635
  store i8 %24, i8* %23, align 1, !dbg !1635
  %25 = getelementptr inbounds { i8, i8 }, { i8, i8 }* %1, i32 0, i32 1, !dbg !1635
  store i8 %19, i8* %25, align 1, !dbg !1635
  %26 = getelementptr inbounds { i8, i8 }, { i8, i8 }* %1, i32 0, i32 0, !dbg !1636
  %27 = load i8, i8* %26, align 1, !dbg !1636
  %28 = getelementptr inbounds { i8, i8 }, { i8, i8 }* %1, i32 0, i32 1, !dbg !1636
  %29 = load i8, i8* %28, align 1, !dbg !1636
  %30 = insertvalue { i8, i8 } undef, i8 %27, 0, !dbg !1636
  %31 = insertvalue { i8, i8 } %30, i8 %29, 1, !dbg !1636
  %_13.0 = extractvalue { i8, i8 } %31, 0, !dbg !1637
  %_13.1 = extractvalue { i8, i8 } %31, 1, !dbg !1637
  br label %bb4, !dbg !1637

bb4:                                              ; preds = %bb3
  store { i8, i8 }* %_9, { i8, i8 }** %self.dbg.spill.i, align 4
  call void @llvm.dbg.declare(metadata { i8, i8 }** %self.dbg.spill.i, metadata !1638, metadata !DIExpression()) #10, !dbg !1644
  %32 = getelementptr inbounds { i8, i8 }, { i8, i8 }* %val.dbg.spill.i1, i32 0, i32 0
  store i8 %_13.0, i8* %32, align 1
  %33 = getelementptr inbounds { i8, i8 }, { i8, i8 }* %val.dbg.spill.i1, i32 0, i32 1
  store i8 %_13.1, i8* %33, align 1
  call void @llvm.dbg.declare(metadata { i8, i8 }* %val.dbg.spill.i1, metadata !1643, metadata !DIExpression()) #10, !dbg !1646
; call core::ptr::write
  call void @_ZN4core3ptr5write17hcf998c1cb7ac1d77E({ i8, i8 }* %_9, i8 %_13.0, i8 %_13.1) #10, !dbg !1647
  br label %bb5, !dbg !1618

bb5:                                              ; preds = %bb4
  %_16 = getelementptr inbounds %"heapless::spsc::Queue<(app::P1_T, u8), 3_usize>", %"heapless::spsc::Queue<(app::P1_T, u8), 3_usize>"* %self, i32 0, i32 1, !dbg !1648
; call heapless::spsc::Queue<T,_>::increment
  %_17 = call i32 @"_ZN8heapless4spsc18Queue$LT$T$C$_$GT$9increment17h508ec96413021199E"(i32 %current_tail) #10, !dbg !1649
  br label %bb6, !dbg !1649

bb6:                                              ; preds = %bb5
  store i8 1, i8* %_19, align 1, !dbg !1650
  %34 = load i8, i8* %_19, align 1, !dbg !1648, !range !1439
; call core::sync::atomic::AtomicUsize::store
  call void @_ZN4core4sync6atomic11AtomicUsize5store17h7e08c04f0f3a30f3E(%"core::sync::atomic::AtomicUsize"* align 4 dereferenceable(4) %_16, i32 %_17, i8 %34) #10, !dbg !1648
  br label %bb7, !dbg !1648

bb7:                                              ; preds = %bb6
  ret void, !dbg !1651
}

; heapless::spsc::Queue<T,_>::enqueue_unchecked
; Function Attrs: nounwind
define internal void @"_ZN8heapless4spsc18Queue$LT$T$C$_$GT$17enqueue_unchecked17h37791079c683ec91E"(%"heapless::spsc::Queue<u8, 2_usize>"* align 4 dereferenceable(12) %self, i8 %val) unnamed_addr #0 !dbg !1652 {
start:
  %val.dbg.spill = alloca i8, align 1
  %self.dbg.spill = alloca %"heapless::spsc::Queue<u8, 2_usize>"*, align 4
  store %"heapless::spsc::Queue<u8, 2_usize>"* %self, %"heapless::spsc::Queue<u8, 2_usize>"** %self.dbg.spill, align 4
  call void @llvm.dbg.declare(metadata %"heapless::spsc::Queue<u8, 2_usize>"** %self.dbg.spill, metadata !1656, metadata !DIExpression()), !dbg !1658
  store i8 %val, i8* %val.dbg.spill, align 1
  call void @llvm.dbg.declare(metadata i8* %val.dbg.spill, metadata !1657, metadata !DIExpression()), !dbg !1659
; call heapless::spsc::Queue<T,_>::inner_enqueue_unchecked
  call void @"_ZN8heapless4spsc18Queue$LT$T$C$_$GT$23inner_enqueue_unchecked17h89c8e0b55bfe44b7E"(%"heapless::spsc::Queue<u8, 2_usize>"* align 4 dereferenceable(12) %self, i8 %val) #10, !dbg !1660
  br label %bb1, !dbg !1660

bb1:                                              ; preds = %start
  ret void, !dbg !1661
}

; heapless::spsc::Queue<T,_>::enqueue_unchecked
; Function Attrs: nounwind
define internal void @"_ZN8heapless4spsc18Queue$LT$T$C$_$GT$17enqueue_unchecked17ha419a43839953ab6E"(%"heapless::spsc::Queue<(app::P1_T, u8), 3_usize>"* align 4 dereferenceable(16) %self, i1 zeroext %val.0, i8 %val.1) unnamed_addr #0 !dbg !1662 {
start:
  %val.dbg.spill = alloca { i8, i8 }, align 1
  %self.dbg.spill = alloca %"heapless::spsc::Queue<(app::P1_T, u8), 3_usize>"*, align 4
  store %"heapless::spsc::Queue<(app::P1_T, u8), 3_usize>"* %self, %"heapless::spsc::Queue<(app::P1_T, u8), 3_usize>"** %self.dbg.spill, align 4
  call void @llvm.dbg.declare(metadata %"heapless::spsc::Queue<(app::P1_T, u8), 3_usize>"** %self.dbg.spill, metadata !1666, metadata !DIExpression()), !dbg !1668
  %0 = getelementptr inbounds { i8, i8 }, { i8, i8 }* %val.dbg.spill, i32 0, i32 0
  %1 = zext i1 %val.0 to i8
  store i8 %1, i8* %0, align 1
  %2 = getelementptr inbounds { i8, i8 }, { i8, i8 }* %val.dbg.spill, i32 0, i32 1
  store i8 %val.1, i8* %2, align 1
  call void @llvm.dbg.declare(metadata { i8, i8 }* %val.dbg.spill, metadata !1667, metadata !DIExpression()), !dbg !1669
; call heapless::spsc::Queue<T,_>::inner_enqueue_unchecked
  call void @"_ZN8heapless4spsc18Queue$LT$T$C$_$GT$23inner_enqueue_unchecked17hc697da99f6577d56E"(%"heapless::spsc::Queue<(app::P1_T, u8), 3_usize>"* align 4 dereferenceable(16) %self, i1 zeroext %val.0, i8 %val.1) #10, !dbg !1670
  br label %bb1, !dbg !1670

bb1:                                              ; preds = %start
  ret void, !dbg !1671
}

; heapless::spsc::Queue<T,_>::inner_dequeue
; Function Attrs: nounwind
define internal { i8, i8 } @"_ZN8heapless4spsc18Queue$LT$T$C$_$GT$13inner_dequeue17h69553b06f8d214e3E"(%"heapless::spsc::Queue<u8, 2_usize>"* align 4 dereferenceable(12) %self) unnamed_addr #0 !dbg !1672 {
start:
  %self.dbg.spill.i = alloca i8*, align 4
  %v.dbg.spill = alloca i8, align 1
  %current_head.dbg.spill = alloca i32, align 4
  %self.dbg.spill = alloca %"heapless::spsc::Queue<u8, 2_usize>"*, align 4
  %_22 = alloca i8, align 1
  %_9 = alloca i8, align 1
  %_4 = alloca i8, align 1
  %0 = alloca { i8, i8 }, align 1
  store %"heapless::spsc::Queue<u8, 2_usize>"* %self, %"heapless::spsc::Queue<u8, 2_usize>"** %self.dbg.spill, align 4
  call void @llvm.dbg.declare(metadata %"heapless::spsc::Queue<u8, 2_usize>"** %self.dbg.spill, metadata !1676, metadata !DIExpression()), !dbg !1681
  %_3 = bitcast %"heapless::spsc::Queue<u8, 2_usize>"* %self to %"core::sync::atomic::AtomicUsize"*, !dbg !1682
  store i8 0, i8* %_4, align 1, !dbg !1683
  %1 = load i8, i8* %_4, align 1, !dbg !1682, !range !1439
; call core::sync::atomic::AtomicUsize::load
  %current_head = call i32 @_ZN4core4sync6atomic11AtomicUsize4load17hbff932a919f9f519E(%"core::sync::atomic::AtomicUsize"* align 4 dereferenceable(4) %_3, i8 %1) #10, !dbg !1682
  store i32 %current_head, i32* %current_head.dbg.spill, align 4, !dbg !1682
  call void @llvm.dbg.declare(metadata i32* %current_head.dbg.spill, metadata !1677, metadata !DIExpression()), !dbg !1684
  br label %bb1, !dbg !1682

bb1:                                              ; preds = %start
  %_8 = getelementptr inbounds %"heapless::spsc::Queue<u8, 2_usize>", %"heapless::spsc::Queue<u8, 2_usize>"* %self, i32 0, i32 1, !dbg !1685
  store i8 2, i8* %_9, align 1, !dbg !1686
  %2 = load i8, i8* %_9, align 1, !dbg !1685, !range !1439
; call core::sync::atomic::AtomicUsize::load
  %_7 = call i32 @_ZN4core4sync6atomic11AtomicUsize4load17hbff932a919f9f519E(%"core::sync::atomic::AtomicUsize"* align 4 dereferenceable(4) %_8, i8 %2) #10, !dbg !1685
  br label %bb2, !dbg !1685

bb2:                                              ; preds = %bb1
  %_5 = icmp eq i32 %current_head, %_7, !dbg !1687
  br i1 %_5, label %bb3, label %bb4, !dbg !1687

bb4:                                              ; preds = %bb2
  %_16 = getelementptr inbounds %"heapless::spsc::Queue<u8, 2_usize>", %"heapless::spsc::Queue<u8, 2_usize>"* %self, i32 0, i32 2, !dbg !1688
  %_15.0 = bitcast [2 x i8]* %_16 to [0 x i8]*, !dbg !1688
; call core::slice::<impl [T]>::get_unchecked
  %_14 = call align 1 dereferenceable(1) i8* @"_ZN4core5slice29_$LT$impl$u20$$u5b$T$u5d$$GT$13get_unchecked17h92887aea7def6c01E"([0 x i8]* nonnull align 1 %_15.0, i32 2, i32 %current_head) #10, !dbg !1688
  br label %bb5, !dbg !1688

bb3:                                              ; preds = %bb2
  %3 = bitcast { i8, i8 }* %0 to i8*, !dbg !1689
  store i8 0, i8* %3, align 1, !dbg !1689
  br label %bb10, !dbg !1690

bb10:                                             ; preds = %bb9, %bb3
  %4 = getelementptr inbounds { i8, i8 }, { i8, i8 }* %0, i32 0, i32 0, !dbg !1691
  %5 = load i8, i8* %4, align 1, !dbg !1691, !range !436
  %6 = trunc i8 %5 to i1, !dbg !1691
  %7 = getelementptr inbounds { i8, i8 }, { i8, i8 }* %0, i32 0, i32 1, !dbg !1691
  %8 = load i8, i8* %7, align 1, !dbg !1691
  %9 = zext i1 %6 to i8, !dbg !1691
  %10 = insertvalue { i8, i8 } undef, i8 %9, 0, !dbg !1691
  %11 = insertvalue { i8, i8 } %10, i8 %8, 1, !dbg !1691
  ret { i8, i8 } %11, !dbg !1691

bb5:                                              ; preds = %bb4
  store i8* %_14, i8** %self.dbg.spill.i, align 4
  call void @llvm.dbg.declare(metadata i8** %self.dbg.spill.i, metadata !1552, metadata !DIExpression()), !dbg !1692
  br label %bb6, !dbg !1688

bb6:                                              ; preds = %bb5
; call core::ptr::const_ptr::<impl *const T>::read
  %v = call i8 @"_ZN4core3ptr9const_ptr33_$LT$impl$u20$$BP$const$u20$T$GT$4read17heb62b597f26bdea0E"(i8* %_14) #10, !dbg !1694
  store i8 %v, i8* %v.dbg.spill, align 1, !dbg !1694
  call void @llvm.dbg.declare(metadata i8* %v.dbg.spill, metadata !1679, metadata !DIExpression()), !dbg !1695
  br label %bb7, !dbg !1694

bb7:                                              ; preds = %bb6
  %_19 = bitcast %"heapless::spsc::Queue<u8, 2_usize>"* %self to %"core::sync::atomic::AtomicUsize"*, !dbg !1696
; call heapless::spsc::Queue<T,_>::increment
  %_20 = call i32 @"_ZN8heapless4spsc18Queue$LT$T$C$_$GT$9increment17h62b7694f13bd5c4aE"(i32 %current_head) #10, !dbg !1697
  br label %bb8, !dbg !1697

bb8:                                              ; preds = %bb7
  store i8 1, i8* %_22, align 1, !dbg !1698
  %12 = load i8, i8* %_22, align 1, !dbg !1696, !range !1439
; call core::sync::atomic::AtomicUsize::store
  call void @_ZN4core4sync6atomic11AtomicUsize5store17h7e08c04f0f3a30f3E(%"core::sync::atomic::AtomicUsize"* align 4 dereferenceable(4) %_19, i32 %_20, i8 %12) #10, !dbg !1696
  br label %bb9, !dbg !1696

bb9:                                              ; preds = %bb8
  %13 = bitcast { i8, i8 }* %0 to %"core::option::Option<u8>::Some"*, !dbg !1699
  %14 = getelementptr inbounds %"core::option::Option<u8>::Some", %"core::option::Option<u8>::Some"* %13, i32 0, i32 1, !dbg !1699
  store i8 %v, i8* %14, align 1, !dbg !1699
  %15 = bitcast { i8, i8 }* %0 to i8*, !dbg !1699
  store i8 1, i8* %15, align 1, !dbg !1699
  br label %bb10, !dbg !1690
}

; heapless::spsc::Queue<T,_>::inner_dequeue
; Function Attrs: nounwind
define internal { i8, i8 } @"_ZN8heapless4spsc18Queue$LT$T$C$_$GT$13inner_dequeue17hac125db0968c02faE"(%"heapless::spsc::Queue<(app::P1_T, u8), 3_usize>"* align 4 dereferenceable(16) %self) unnamed_addr #0 !dbg !1700 {
start:
  %self.dbg.spill.i = alloca { i8, i8 }*, align 4
  %v.dbg.spill = alloca { i8, i8 }, align 1
  %current_head.dbg.spill = alloca i32, align 4
  %self.dbg.spill = alloca %"heapless::spsc::Queue<(app::P1_T, u8), 3_usize>"*, align 4
  %_22 = alloca i8, align 1
  %_9 = alloca i8, align 1
  %_4 = alloca i8, align 1
  %0 = alloca { i8, i8 }, align 1
  store %"heapless::spsc::Queue<(app::P1_T, u8), 3_usize>"* %self, %"heapless::spsc::Queue<(app::P1_T, u8), 3_usize>"** %self.dbg.spill, align 4
  call void @llvm.dbg.declare(metadata %"heapless::spsc::Queue<(app::P1_T, u8), 3_usize>"** %self.dbg.spill, metadata !1714, metadata !DIExpression()), !dbg !1719
  %_3 = bitcast %"heapless::spsc::Queue<(app::P1_T, u8), 3_usize>"* %self to %"core::sync::atomic::AtomicUsize"*, !dbg !1720
  store i8 0, i8* %_4, align 1, !dbg !1721
  %1 = load i8, i8* %_4, align 1, !dbg !1720, !range !1439
; call core::sync::atomic::AtomicUsize::load
  %current_head = call i32 @_ZN4core4sync6atomic11AtomicUsize4load17hbff932a919f9f519E(%"core::sync::atomic::AtomicUsize"* align 4 dereferenceable(4) %_3, i8 %1) #10, !dbg !1720
  store i32 %current_head, i32* %current_head.dbg.spill, align 4, !dbg !1720
  call void @llvm.dbg.declare(metadata i32* %current_head.dbg.spill, metadata !1715, metadata !DIExpression()), !dbg !1722
  br label %bb1, !dbg !1720

bb1:                                              ; preds = %start
  %_8 = getelementptr inbounds %"heapless::spsc::Queue<(app::P1_T, u8), 3_usize>", %"heapless::spsc::Queue<(app::P1_T, u8), 3_usize>"* %self, i32 0, i32 1, !dbg !1723
  store i8 2, i8* %_9, align 1, !dbg !1724
  %2 = load i8, i8* %_9, align 1, !dbg !1723, !range !1439
; call core::sync::atomic::AtomicUsize::load
  %_7 = call i32 @_ZN4core4sync6atomic11AtomicUsize4load17hbff932a919f9f519E(%"core::sync::atomic::AtomicUsize"* align 4 dereferenceable(4) %_8, i8 %2) #10, !dbg !1723
  br label %bb2, !dbg !1723

bb2:                                              ; preds = %bb1
  %_5 = icmp eq i32 %current_head, %_7, !dbg !1725
  br i1 %_5, label %bb3, label %bb4, !dbg !1725

bb4:                                              ; preds = %bb2
  %_16 = getelementptr inbounds %"heapless::spsc::Queue<(app::P1_T, u8), 3_usize>", %"heapless::spsc::Queue<(app::P1_T, u8), 3_usize>"* %self, i32 0, i32 2, !dbg !1726
  %_15.0 = bitcast [3 x { i8, i8 }]* %_16 to [0 x { i8, i8 }]*, !dbg !1726
; call core::slice::<impl [T]>::get_unchecked
  %_14 = call align 1 dereferenceable(2) { i8, i8 }* @"_ZN4core5slice29_$LT$impl$u20$$u5b$T$u5d$$GT$13get_unchecked17h990719cc23fef4feE"([0 x { i8, i8 }]* nonnull align 1 %_15.0, i32 3, i32 %current_head) #10, !dbg !1726
  br label %bb5, !dbg !1726

bb3:                                              ; preds = %bb2
  %3 = bitcast { i8, i8 }* %0 to i8*, !dbg !1727
  call void @llvm.memset.p0i8.i32(i8* align 1 %3, i8 0, i32 2, i1 false), !dbg !1727
  %4 = bitcast { i8, i8 }* %0 to i8*, !dbg !1727
  store i8 2, i8* %4, align 1, !dbg !1727
  br label %bb10, !dbg !1728

bb10:                                             ; preds = %bb9, %bb3
  %5 = getelementptr inbounds { i8, i8 }, { i8, i8 }* %0, i32 0, i32 0, !dbg !1729
  %6 = load i8, i8* %5, align 1, !dbg !1729, !range !770
  %7 = getelementptr inbounds { i8, i8 }, { i8, i8 }* %0, i32 0, i32 1, !dbg !1729
  %8 = load i8, i8* %7, align 1, !dbg !1729
  %9 = insertvalue { i8, i8 } undef, i8 %6, 0, !dbg !1729
  %10 = insertvalue { i8, i8 } %9, i8 %8, 1, !dbg !1729
  ret { i8, i8 } %10, !dbg !1729

bb5:                                              ; preds = %bb4
  store { i8, i8 }* %_14, { i8, i8 }** %self.dbg.spill.i, align 4
  call void @llvm.dbg.declare(metadata { i8, i8 }** %self.dbg.spill.i, metadata !1609, metadata !DIExpression()), !dbg !1730
  br label %bb6, !dbg !1726

bb6:                                              ; preds = %bb5
; call core::ptr::const_ptr::<impl *const T>::read
  %11 = call { i8, i8 } @"_ZN4core3ptr9const_ptr33_$LT$impl$u20$$BP$const$u20$T$GT$4read17h5b4f761fdb64603eE"({ i8, i8 }* %_14) #10, !dbg !1732
  %12 = extractvalue { i8, i8 } %11, 0, !dbg !1732
  %v.0 = trunc i8 %12 to i1, !dbg !1732
  %v.1 = extractvalue { i8, i8 } %11, 1, !dbg !1732
  %13 = getelementptr inbounds { i8, i8 }, { i8, i8 }* %v.dbg.spill, i32 0, i32 0, !dbg !1732
  %14 = zext i1 %v.0 to i8, !dbg !1732
  store i8 %14, i8* %13, align 1, !dbg !1732
  %15 = getelementptr inbounds { i8, i8 }, { i8, i8 }* %v.dbg.spill, i32 0, i32 1, !dbg !1732
  store i8 %v.1, i8* %15, align 1, !dbg !1732
  call void @llvm.dbg.declare(metadata { i8, i8 }* %v.dbg.spill, metadata !1717, metadata !DIExpression()), !dbg !1733
  br label %bb7, !dbg !1732

bb7:                                              ; preds = %bb6
  %_19 = bitcast %"heapless::spsc::Queue<(app::P1_T, u8), 3_usize>"* %self to %"core::sync::atomic::AtomicUsize"*, !dbg !1734
; call heapless::spsc::Queue<T,_>::increment
  %_20 = call i32 @"_ZN8heapless4spsc18Queue$LT$T$C$_$GT$9increment17h508ec96413021199E"(i32 %current_head) #10, !dbg !1735
  br label %bb8, !dbg !1735

bb8:                                              ; preds = %bb7
  store i8 1, i8* %_22, align 1, !dbg !1736
  %16 = load i8, i8* %_22, align 1, !dbg !1734, !range !1439
; call core::sync::atomic::AtomicUsize::store
  call void @_ZN4core4sync6atomic11AtomicUsize5store17h7e08c04f0f3a30f3E(%"core::sync::atomic::AtomicUsize"* align 4 dereferenceable(4) %_19, i32 %_20, i8 %16) #10, !dbg !1734
  br label %bb9, !dbg !1734

bb9:                                              ; preds = %bb8
  %17 = getelementptr inbounds { i8, i8 }, { i8, i8 }* %0, i32 0, i32 0, !dbg !1737
  %18 = zext i1 %v.0 to i8, !dbg !1737
  store i8 %18, i8* %17, align 1, !dbg !1737
  %19 = getelementptr inbounds { i8, i8 }, { i8, i8 }* %0, i32 0, i32 1, !dbg !1737
  store i8 %v.1, i8* %19, align 1, !dbg !1737
  br label %bb10, !dbg !1728
}

; heapless::spsc::Queue<T,_>::split
; Function Attrs: nounwind
define internal { i32*, i32* } @"_ZN8heapless4spsc18Queue$LT$T$C$_$GT$5split17h4fd76e368a9e3d31E"(%"heapless::spsc::Queue<(app::P1_T, u8), 3_usize>"* align 4 dereferenceable(16) %self) unnamed_addr #0 !dbg !1738 {
start:
  %self.dbg.spill = alloca %"heapless::spsc::Queue<(app::P1_T, u8), 3_usize>"*, align 4
  %_4 = alloca i32*, align 4
  %_2 = alloca i32*, align 4
  %0 = alloca { i32*, i32* }, align 4
  store %"heapless::spsc::Queue<(app::P1_T, u8), 3_usize>"* %self, %"heapless::spsc::Queue<(app::P1_T, u8), 3_usize>"** %self.dbg.spill, align 4
  call void @llvm.dbg.declare(metadata %"heapless::spsc::Queue<(app::P1_T, u8), 3_usize>"** %self.dbg.spill, metadata !1752, metadata !DIExpression()), !dbg !1753
  %1 = bitcast i32** %_2 to %"heapless::spsc::Queue<(app::P1_T, u8), 3_usize>"**, !dbg !1754
  store %"heapless::spsc::Queue<(app::P1_T, u8), 3_usize>"* %self, %"heapless::spsc::Queue<(app::P1_T, u8), 3_usize>"** %1, align 4, !dbg !1754
  %2 = bitcast i32** %_4 to %"heapless::spsc::Queue<(app::P1_T, u8), 3_usize>"**, !dbg !1755
  store %"heapless::spsc::Queue<(app::P1_T, u8), 3_usize>"* %self, %"heapless::spsc::Queue<(app::P1_T, u8), 3_usize>"** %2, align 4, !dbg !1755
  %3 = bitcast { i32*, i32* }* %0 to i32**, !dbg !1756
  %4 = load i32*, i32** %_2, align 4, !dbg !1756, !nonnull !59
  store i32* %4, i32** %3, align 4, !dbg !1756
  %5 = getelementptr inbounds { i32*, i32* }, { i32*, i32* }* %0, i32 0, i32 1, !dbg !1756
  %6 = load i32*, i32** %_4, align 4, !dbg !1756, !nonnull !59
  store i32* %6, i32** %5, align 4, !dbg !1756
  %7 = getelementptr inbounds { i32*, i32* }, { i32*, i32* }* %0, i32 0, i32 0, !dbg !1757
  %8 = load i32*, i32** %7, align 4, !dbg !1757, !nonnull !59
  %9 = getelementptr inbounds { i32*, i32* }, { i32*, i32* }* %0, i32 0, i32 1, !dbg !1757
  %10 = load i32*, i32** %9, align 4, !dbg !1757, !nonnull !59
  %11 = insertvalue { i32*, i32* } undef, i32* %8, 0, !dbg !1757
  %12 = insertvalue { i32*, i32* } %11, i32* %10, 1, !dbg !1757
  ret { i32*, i32* } %12, !dbg !1757
}

; heapless::spsc::Queue<T,_>::split
; Function Attrs: nounwind
define internal { i32*, i32* } @"_ZN8heapless4spsc18Queue$LT$T$C$_$GT$5split17h5bcea21f35589d84E"(%"heapless::spsc::Queue<u8, 2_usize>"* align 4 dereferenceable(12) %self) unnamed_addr #0 !dbg !1758 {
start:
  %self.dbg.spill = alloca %"heapless::spsc::Queue<u8, 2_usize>"*, align 4
  %_4 = alloca i32*, align 4
  %_2 = alloca i32*, align 4
  %0 = alloca { i32*, i32* }, align 4
  store %"heapless::spsc::Queue<u8, 2_usize>"* %self, %"heapless::spsc::Queue<u8, 2_usize>"** %self.dbg.spill, align 4
  call void @llvm.dbg.declare(metadata %"heapless::spsc::Queue<u8, 2_usize>"** %self.dbg.spill, metadata !1772, metadata !DIExpression()), !dbg !1773
  %1 = bitcast i32** %_2 to %"heapless::spsc::Queue<u8, 2_usize>"**, !dbg !1774
  store %"heapless::spsc::Queue<u8, 2_usize>"* %self, %"heapless::spsc::Queue<u8, 2_usize>"** %1, align 4, !dbg !1774
  %2 = bitcast i32** %_4 to %"heapless::spsc::Queue<u8, 2_usize>"**, !dbg !1775
  store %"heapless::spsc::Queue<u8, 2_usize>"* %self, %"heapless::spsc::Queue<u8, 2_usize>"** %2, align 4, !dbg !1775
  %3 = bitcast { i32*, i32* }* %0 to i32**, !dbg !1776
  %4 = load i32*, i32** %_2, align 4, !dbg !1776, !nonnull !59
  store i32* %4, i32** %3, align 4, !dbg !1776
  %5 = getelementptr inbounds { i32*, i32* }, { i32*, i32* }* %0, i32 0, i32 1, !dbg !1776
  %6 = load i32*, i32** %_4, align 4, !dbg !1776, !nonnull !59
  store i32* %6, i32** %5, align 4, !dbg !1776
  %7 = getelementptr inbounds { i32*, i32* }, { i32*, i32* }* %0, i32 0, i32 0, !dbg !1777
  %8 = load i32*, i32** %7, align 4, !dbg !1777, !nonnull !59
  %9 = getelementptr inbounds { i32*, i32* }, { i32*, i32* }* %0, i32 0, i32 1, !dbg !1777
  %10 = load i32*, i32** %9, align 4, !dbg !1777, !nonnull !59
  %11 = insertvalue { i32*, i32* } undef, i32* %8, 0, !dbg !1777
  %12 = insertvalue { i32*, i32* } %11, i32* %10, 1, !dbg !1777
  ret { i32*, i32* } %12, !dbg !1777
}

; <heapless::spsc::IterMut<T,_> as core::iter::traits::iterator::Iterator>::next
; Function Attrs: nounwind
define internal align 1 dereferenceable_or_null(2) i8* @"_ZN95_$LT$heapless..spsc..IterMut$LT$T$C$_$GT$$u20$as$u20$core..iter..traits..iterator..Iterator$GT$4next17h4d3320e7f4c35bbcE"(%"heapless::spsc::IterMut<(app::P1_T, u8), 3_usize>"* align 4 dereferenceable(12) %self) unnamed_addr #0 !dbg !1778 {
start:
  %self.dbg.spill.i = alloca { i8, i8 }*, align 4
  %i.dbg.spill = alloca i32, align 4
  %head.dbg.spill = alloca i32, align 4
  %self.dbg.spill = alloca %"heapless::spsc::IterMut<(app::P1_T, u8), 3_usize>"*, align 4
  %_7 = alloca i8, align 1
  %0 = alloca i8*, align 4
  store %"heapless::spsc::IterMut<(app::P1_T, u8), 3_usize>"* %self, %"heapless::spsc::IterMut<(app::P1_T, u8), 3_usize>"** %self.dbg.spill, align 4
  call void @llvm.dbg.declare(metadata %"heapless::spsc::IterMut<(app::P1_T, u8), 3_usize>"** %self.dbg.spill, metadata !1798, metadata !DIExpression()), !dbg !1803
  %1 = getelementptr inbounds %"heapless::spsc::IterMut<(app::P1_T, u8), 3_usize>", %"heapless::spsc::IterMut<(app::P1_T, u8), 3_usize>"* %self, i32 0, i32 1, !dbg !1804
  %_3 = load i32, i32* %1, align 4, !dbg !1804
  %2 = getelementptr inbounds %"heapless::spsc::IterMut<(app::P1_T, u8), 3_usize>", %"heapless::spsc::IterMut<(app::P1_T, u8), 3_usize>"* %self, i32 0, i32 2, !dbg !1805
  %_4 = load i32, i32* %2, align 4, !dbg !1805
  %_2 = icmp ult i32 %_3, %_4, !dbg !1804
  br i1 %_2, label %bb1, label %bb8, !dbg !1804

bb8:                                              ; preds = %start
  %3 = bitcast i8** %0 to i8*, !dbg !1806
  call void @llvm.memset.p0i8.i32(i8* align 4 %3, i8 0, i32 4, i1 false), !dbg !1806
  %4 = bitcast i8** %0 to {}**, !dbg !1806
  store {}* null, {}** %4, align 4, !dbg !1806
  br label %bb9, !dbg !1807

bb1:                                              ; preds = %start
  %5 = bitcast %"heapless::spsc::IterMut<(app::P1_T, u8), 3_usize>"* %self to %"heapless::spsc::Queue<(app::P1_T, u8), 3_usize>"**, !dbg !1808
  %6 = load %"heapless::spsc::Queue<(app::P1_T, u8), 3_usize>"*, %"heapless::spsc::Queue<(app::P1_T, u8), 3_usize>"** %5, align 4, !dbg !1808, !nonnull !59
  %_6 = bitcast %"heapless::spsc::Queue<(app::P1_T, u8), 3_usize>"* %6 to %"core::sync::atomic::AtomicUsize"*, !dbg !1808
  store i8 0, i8* %_7, align 1, !dbg !1809
  %7 = load i8, i8* %_7, align 1, !dbg !1808, !range !1439
; call core::sync::atomic::AtomicUsize::load
  %head = call i32 @_ZN4core4sync6atomic11AtomicUsize4load17hbff932a919f9f519E(%"core::sync::atomic::AtomicUsize"* align 4 dereferenceable(4) %_6, i8 %7) #10, !dbg !1808
  store i32 %head, i32* %head.dbg.spill, align 4, !dbg !1808
  call void @llvm.dbg.declare(metadata i32* %head.dbg.spill, metadata !1799, metadata !DIExpression()), !dbg !1810
  br label %bb2, !dbg !1808

bb2:                                              ; preds = %bb1
  %8 = getelementptr inbounds %"heapless::spsc::IterMut<(app::P1_T, u8), 3_usize>", %"heapless::spsc::IterMut<(app::P1_T, u8), 3_usize>"* %self, i32 0, i32 1, !dbg !1811
  %_11 = load i32, i32* %8, align 4, !dbg !1811
  %9 = call { i32, i1 } @llvm.uadd.with.overflow.i32(i32 %head, i32 %_11), !dbg !1812
  %_12.0 = extractvalue { i32, i1 } %9, 0, !dbg !1812
  %_12.1 = extractvalue { i32, i1 } %9, 1, !dbg !1812
  %10 = call i1 @llvm.expect.i1(i1 %_12.1, i1 false), !dbg !1812
  br i1 %10, label %panic, label %bb3, !dbg !1812

bb3:                                              ; preds = %bb2
  br label %bb4, !dbg !1812

panic:                                            ; preds = %bb2
; call core::panicking::panic
  call void @_ZN4core9panicking5panic17h9e72682d8e5e8cf1E([0 x i8]* nonnull align 1 bitcast ([28 x i8]* @str.0 to [0 x i8]*), i32 28, %"core::panic::location::Location"* align 4 dereferenceable(16) bitcast (<{ i8*, [12 x i8] }>* @alloc201 to %"core::panic::location::Location"*)) #11, !dbg !1812
  unreachable, !dbg !1812

bb4:                                              ; preds = %bb3
  %i = urem i32 %_12.0, 3, !dbg !1812
  store i32 %i, i32* %i.dbg.spill, align 4, !dbg !1812
  call void @llvm.dbg.declare(metadata i32* %i.dbg.spill, metadata !1801, metadata !DIExpression()), !dbg !1813
  %11 = getelementptr inbounds %"heapless::spsc::IterMut<(app::P1_T, u8), 3_usize>", %"heapless::spsc::IterMut<(app::P1_T, u8), 3_usize>"* %self, i32 0, i32 1, !dbg !1814
  %12 = load i32, i32* %11, align 4, !dbg !1814
  %13 = call { i32, i1 } @llvm.uadd.with.overflow.i32(i32 %12, i32 1), !dbg !1814
  %_14.0 = extractvalue { i32, i1 } %13, 0, !dbg !1814
  %_14.1 = extractvalue { i32, i1 } %13, 1, !dbg !1814
  %14 = call i1 @llvm.expect.i1(i1 %_14.1, i1 false), !dbg !1814
  br i1 %14, label %panic1, label %bb5, !dbg !1814

bb5:                                              ; preds = %bb4
  %15 = getelementptr inbounds %"heapless::spsc::IterMut<(app::P1_T, u8), 3_usize>", %"heapless::spsc::IterMut<(app::P1_T, u8), 3_usize>"* %self, i32 0, i32 1, !dbg !1814
  store i32 %_14.0, i32* %15, align 4, !dbg !1814
  %16 = bitcast %"heapless::spsc::IterMut<(app::P1_T, u8), 3_usize>"* %self to %"heapless::spsc::Queue<(app::P1_T, u8), 3_usize>"**, !dbg !1815
  %17 = load %"heapless::spsc::Queue<(app::P1_T, u8), 3_usize>"*, %"heapless::spsc::Queue<(app::P1_T, u8), 3_usize>"** %16, align 4, !dbg !1815, !nonnull !59
  %_23 = getelementptr inbounds %"heapless::spsc::Queue<(app::P1_T, u8), 3_usize>", %"heapless::spsc::Queue<(app::P1_T, u8), 3_usize>"* %17, i32 0, i32 2, !dbg !1815
  %_22.0 = bitcast [3 x { i8, i8 }]* %_23 to [0 x { i8, i8 }]*, !dbg !1815
; call core::slice::<impl [T]>::get_unchecked
  %_21 = call align 1 dereferenceable(2) { i8, i8 }* @"_ZN4core5slice29_$LT$impl$u20$$u5b$T$u5d$$GT$13get_unchecked17h990719cc23fef4feE"([0 x { i8, i8 }]* nonnull align 1 %_22.0, i32 3, i32 %i) #10, !dbg !1815
  br label %bb6, !dbg !1815

panic1:                                           ; preds = %bb4
; call core::panicking::panic
  call void @_ZN4core9panicking5panic17h9e72682d8e5e8cf1E([0 x i8]* nonnull align 1 bitcast ([28 x i8]* @str.0 to [0 x i8]*), i32 28, %"core::panic::location::Location"* align 4 dereferenceable(16) bitcast (<{ i8*, [12 x i8] }>* @alloc203 to %"core::panic::location::Location"*)) #11, !dbg !1814
  unreachable, !dbg !1814

bb6:                                              ; preds = %bb5
  store { i8, i8 }* %_21, { i8, i8 }** %self.dbg.spill.i, align 4
  call void @llvm.dbg.declare(metadata { i8, i8 }** %self.dbg.spill.i, metadata !1609, metadata !DIExpression()), !dbg !1816
  br label %bb7, !dbg !1815

bb7:                                              ; preds = %bb6
  %18 = bitcast i8** %0 to { i8, i8 }**, !dbg !1818
  store { i8, i8 }* %_21, { i8, i8 }** %18, align 4, !dbg !1818
  br label %bb9, !dbg !1807

bb9:                                              ; preds = %bb8, %bb7
  %19 = load i8*, i8** %0, align 4, !dbg !1819
  ret i8* %19, !dbg !1819
}

; <heapless::spsc::IterMut<T,_> as core::iter::traits::iterator::Iterator>::next
; Function Attrs: nounwind
define internal align 1 dereferenceable_or_null(1) i8* @"_ZN95_$LT$heapless..spsc..IterMut$LT$T$C$_$GT$$u20$as$u20$core..iter..traits..iterator..Iterator$GT$4next17h72004cbeb71d9325E"(%"heapless::spsc::IterMut<u8, 2_usize>"* align 4 dereferenceable(12) %self) unnamed_addr #0 !dbg !1820 {
start:
  %self.dbg.spill.i = alloca i8*, align 4
  %i.dbg.spill = alloca i32, align 4
  %head.dbg.spill = alloca i32, align 4
  %self.dbg.spill = alloca %"heapless::spsc::IterMut<u8, 2_usize>"*, align 4
  %_7 = alloca i8, align 1
  %0 = alloca i8*, align 4
  store %"heapless::spsc::IterMut<u8, 2_usize>"* %self, %"heapless::spsc::IterMut<u8, 2_usize>"** %self.dbg.spill, align 4
  call void @llvm.dbg.declare(metadata %"heapless::spsc::IterMut<u8, 2_usize>"** %self.dbg.spill, metadata !1837, metadata !DIExpression()), !dbg !1842
  %1 = getelementptr inbounds %"heapless::spsc::IterMut<u8, 2_usize>", %"heapless::spsc::IterMut<u8, 2_usize>"* %self, i32 0, i32 1, !dbg !1843
  %_3 = load i32, i32* %1, align 4, !dbg !1843
  %2 = getelementptr inbounds %"heapless::spsc::IterMut<u8, 2_usize>", %"heapless::spsc::IterMut<u8, 2_usize>"* %self, i32 0, i32 2, !dbg !1844
  %_4 = load i32, i32* %2, align 4, !dbg !1844
  %_2 = icmp ult i32 %_3, %_4, !dbg !1843
  br i1 %_2, label %bb1, label %bb8, !dbg !1843

bb8:                                              ; preds = %start
  %3 = bitcast i8** %0 to i8*, !dbg !1845
  call void @llvm.memset.p0i8.i32(i8* align 4 %3, i8 0, i32 4, i1 false), !dbg !1845
  %4 = bitcast i8** %0 to {}**, !dbg !1845
  store {}* null, {}** %4, align 4, !dbg !1845
  br label %bb9, !dbg !1846

bb1:                                              ; preds = %start
  %5 = bitcast %"heapless::spsc::IterMut<u8, 2_usize>"* %self to %"heapless::spsc::Queue<u8, 2_usize>"**, !dbg !1847
  %6 = load %"heapless::spsc::Queue<u8, 2_usize>"*, %"heapless::spsc::Queue<u8, 2_usize>"** %5, align 4, !dbg !1847, !nonnull !59
  %_6 = bitcast %"heapless::spsc::Queue<u8, 2_usize>"* %6 to %"core::sync::atomic::AtomicUsize"*, !dbg !1847
  store i8 0, i8* %_7, align 1, !dbg !1848
  %7 = load i8, i8* %_7, align 1, !dbg !1847, !range !1439
; call core::sync::atomic::AtomicUsize::load
  %head = call i32 @_ZN4core4sync6atomic11AtomicUsize4load17hbff932a919f9f519E(%"core::sync::atomic::AtomicUsize"* align 4 dereferenceable(4) %_6, i8 %7) #10, !dbg !1847
  store i32 %head, i32* %head.dbg.spill, align 4, !dbg !1847
  call void @llvm.dbg.declare(metadata i32* %head.dbg.spill, metadata !1838, metadata !DIExpression()), !dbg !1849
  br label %bb2, !dbg !1847

bb2:                                              ; preds = %bb1
  %8 = getelementptr inbounds %"heapless::spsc::IterMut<u8, 2_usize>", %"heapless::spsc::IterMut<u8, 2_usize>"* %self, i32 0, i32 1, !dbg !1850
  %_11 = load i32, i32* %8, align 4, !dbg !1850
  %9 = call { i32, i1 } @llvm.uadd.with.overflow.i32(i32 %head, i32 %_11), !dbg !1851
  %_12.0 = extractvalue { i32, i1 } %9, 0, !dbg !1851
  %_12.1 = extractvalue { i32, i1 } %9, 1, !dbg !1851
  %10 = call i1 @llvm.expect.i1(i1 %_12.1, i1 false), !dbg !1851
  br i1 %10, label %panic, label %bb3, !dbg !1851

bb3:                                              ; preds = %bb2
  br label %bb4, !dbg !1851

panic:                                            ; preds = %bb2
; call core::panicking::panic
  call void @_ZN4core9panicking5panic17h9e72682d8e5e8cf1E([0 x i8]* nonnull align 1 bitcast ([28 x i8]* @str.0 to [0 x i8]*), i32 28, %"core::panic::location::Location"* align 4 dereferenceable(16) bitcast (<{ i8*, [12 x i8] }>* @alloc201 to %"core::panic::location::Location"*)) #11, !dbg !1851
  unreachable, !dbg !1851

bb4:                                              ; preds = %bb3
  %i = urem i32 %_12.0, 2, !dbg !1851
  store i32 %i, i32* %i.dbg.spill, align 4, !dbg !1851
  call void @llvm.dbg.declare(metadata i32* %i.dbg.spill, metadata !1840, metadata !DIExpression()), !dbg !1852
  %11 = getelementptr inbounds %"heapless::spsc::IterMut<u8, 2_usize>", %"heapless::spsc::IterMut<u8, 2_usize>"* %self, i32 0, i32 1, !dbg !1853
  %12 = load i32, i32* %11, align 4, !dbg !1853
  %13 = call { i32, i1 } @llvm.uadd.with.overflow.i32(i32 %12, i32 1), !dbg !1853
  %_14.0 = extractvalue { i32, i1 } %13, 0, !dbg !1853
  %_14.1 = extractvalue { i32, i1 } %13, 1, !dbg !1853
  %14 = call i1 @llvm.expect.i1(i1 %_14.1, i1 false), !dbg !1853
  br i1 %14, label %panic1, label %bb5, !dbg !1853

bb5:                                              ; preds = %bb4
  %15 = getelementptr inbounds %"heapless::spsc::IterMut<u8, 2_usize>", %"heapless::spsc::IterMut<u8, 2_usize>"* %self, i32 0, i32 1, !dbg !1853
  store i32 %_14.0, i32* %15, align 4, !dbg !1853
  %16 = bitcast %"heapless::spsc::IterMut<u8, 2_usize>"* %self to %"heapless::spsc::Queue<u8, 2_usize>"**, !dbg !1854
  %17 = load %"heapless::spsc::Queue<u8, 2_usize>"*, %"heapless::spsc::Queue<u8, 2_usize>"** %16, align 4, !dbg !1854, !nonnull !59
  %_23 = getelementptr inbounds %"heapless::spsc::Queue<u8, 2_usize>", %"heapless::spsc::Queue<u8, 2_usize>"* %17, i32 0, i32 2, !dbg !1854
  %_22.0 = bitcast [2 x i8]* %_23 to [0 x i8]*, !dbg !1854
; call core::slice::<impl [T]>::get_unchecked
  %_21 = call align 1 dereferenceable(1) i8* @"_ZN4core5slice29_$LT$impl$u20$$u5b$T$u5d$$GT$13get_unchecked17h92887aea7def6c01E"([0 x i8]* nonnull align 1 %_22.0, i32 2, i32 %i) #10, !dbg !1854
  br label %bb6, !dbg !1854

panic1:                                           ; preds = %bb4
; call core::panicking::panic
  call void @_ZN4core9panicking5panic17h9e72682d8e5e8cf1E([0 x i8]* nonnull align 1 bitcast ([28 x i8]* @str.0 to [0 x i8]*), i32 28, %"core::panic::location::Location"* align 4 dereferenceable(16) bitcast (<{ i8*, [12 x i8] }>* @alloc203 to %"core::panic::location::Location"*)) #11, !dbg !1853
  unreachable, !dbg !1853

bb6:                                              ; preds = %bb5
  store i8* %_21, i8** %self.dbg.spill.i, align 4
  call void @llvm.dbg.declare(metadata i8** %self.dbg.spill.i, metadata !1552, metadata !DIExpression()), !dbg !1855
  br label %bb7, !dbg !1854

bb7:                                              ; preds = %bb6
  store i8* %_21, i8** %0, align 4, !dbg !1857
  br label %bb9, !dbg !1846

bb9:                                              ; preds = %bb8, %bb7
  %18 = load i8*, i8** %0, align 4, !dbg !1858
  ret i8* %18, !dbg !1858
}

; <heapless::spsc::Queue<T,_> as core::ops::drop::Drop>::drop
; Function Attrs: nounwind
define internal void @"_ZN76_$LT$heapless..spsc..Queue$LT$T$C$_$GT$$u20$as$u20$core..ops..drop..Drop$GT$4drop17h9ad36f3161ed8116E"(%"heapless::spsc::Queue<u8, 2_usize>"* align 4 dereferenceable(12) %self) unnamed_addr #0 !dbg !1859 {
start:
  %item.dbg.spill = alloca i8*, align 4
  %self.dbg.spill = alloca %"heapless::spsc::Queue<u8, 2_usize>"*, align 4
  %_5 = alloca i8*, align 4
  %iter = alloca %"heapless::spsc::IterMut<u8, 2_usize>", align 4
  %_2 = alloca %"heapless::spsc::IterMut<u8, 2_usize>", align 4
  store %"heapless::spsc::Queue<u8, 2_usize>"* %self, %"heapless::spsc::Queue<u8, 2_usize>"** %self.dbg.spill, align 4
  call void @llvm.dbg.declare(metadata %"heapless::spsc::Queue<u8, 2_usize>"** %self.dbg.spill, metadata !1864, metadata !DIExpression()), !dbg !1869
  call void @llvm.dbg.declare(metadata %"heapless::spsc::IterMut<u8, 2_usize>"* %iter, metadata !1865, metadata !DIExpression()), !dbg !1870
; call <&mut heapless::spsc::Queue<T,_> as core::iter::traits::collect::IntoIterator>::into_iter
  call void @"_ZN108_$LT$$RF$mut$u20$heapless..spsc..Queue$LT$T$C$_$GT$$u20$as$u20$core..iter..traits..collect..IntoIterator$GT$9into_iter17h73e2329ae13ae5ccE"(%"heapless::spsc::IterMut<u8, 2_usize>"* noalias nocapture sret(%"heapless::spsc::IterMut<u8, 2_usize>") dereferenceable(12) %_2, %"heapless::spsc::Queue<u8, 2_usize>"* align 4 dereferenceable(12) %self) #10, !dbg !1871
  br label %bb1, !dbg !1871

bb1:                                              ; preds = %start
  %0 = bitcast %"heapless::spsc::IterMut<u8, 2_usize>"* %iter to i8*, !dbg !1871
  %1 = bitcast %"heapless::spsc::IterMut<u8, 2_usize>"* %_2 to i8*, !dbg !1871
  call void @llvm.memcpy.p0i8.p0i8.i32(i8* align 4 %0, i8* align 4 %1, i32 12, i1 false), !dbg !1871
  br label %bb2, !dbg !1872

bb2:                                              ; preds = %bb4, %bb1
; call <heapless::spsc::IterMut<T,_> as core::iter::traits::iterator::Iterator>::next
  %2 = call align 1 dereferenceable_or_null(1) i8* @"_ZN95_$LT$heapless..spsc..IterMut$LT$T$C$_$GT$$u20$as$u20$core..iter..traits..iterator..Iterator$GT$4next17h72004cbeb71d9325E"(%"heapless::spsc::IterMut<u8, 2_usize>"* align 4 dereferenceable(12) %iter) #10, !dbg !1870
  store i8* %2, i8** %_5, align 4, !dbg !1870
  br label %bb3, !dbg !1870

bb3:                                              ; preds = %bb2
  %3 = bitcast i8** %_5 to {}**, !dbg !1870
  %4 = load {}*, {}** %3, align 4, !dbg !1870
  %5 = icmp eq {}* %4, null, !dbg !1870
  %_8 = select i1 %5, i32 0, i32 1, !dbg !1870
  switch i32 %_8, label %bb5 [
    i32 0, label %bb6
    i32 1, label %bb4
  ], !dbg !1870

bb5:                                              ; preds = %bb3
  unreachable, !dbg !1870

bb6:                                              ; preds = %bb3
  ret void, !dbg !1873

bb4:                                              ; preds = %bb3
  %item = load i8*, i8** %_5, align 4, !dbg !1874, !nonnull !59
  store i8* %item, i8** %item.dbg.spill, align 4, !dbg !1874
  call void @llvm.dbg.declare(metadata i8** %item.dbg.spill, metadata !1867, metadata !DIExpression()), !dbg !1875
  br label %bb2, !dbg !1876
}

; <heapless::spsc::Queue<T,_> as core::ops::drop::Drop>::drop
; Function Attrs: nounwind
define internal void @"_ZN76_$LT$heapless..spsc..Queue$LT$T$C$_$GT$$u20$as$u20$core..ops..drop..Drop$GT$4drop17hde889c84868322b6E"(%"heapless::spsc::Queue<(app::P1_T, u8), 3_usize>"* align 4 dereferenceable(16) %self) unnamed_addr #0 !dbg !1877 {
start:
  %item.dbg.spill = alloca { i8, i8 }*, align 4
  %self.dbg.spill = alloca %"heapless::spsc::Queue<(app::P1_T, u8), 3_usize>"*, align 4
  %_5 = alloca i8*, align 4
  %iter = alloca %"heapless::spsc::IterMut<(app::P1_T, u8), 3_usize>", align 4
  %_2 = alloca %"heapless::spsc::IterMut<(app::P1_T, u8), 3_usize>", align 4
  store %"heapless::spsc::Queue<(app::P1_T, u8), 3_usize>"* %self, %"heapless::spsc::Queue<(app::P1_T, u8), 3_usize>"** %self.dbg.spill, align 4
  call void @llvm.dbg.declare(metadata %"heapless::spsc::Queue<(app::P1_T, u8), 3_usize>"** %self.dbg.spill, metadata !1881, metadata !DIExpression()), !dbg !1886
  call void @llvm.dbg.declare(metadata %"heapless::spsc::IterMut<(app::P1_T, u8), 3_usize>"* %iter, metadata !1882, metadata !DIExpression()), !dbg !1887
; call <&mut heapless::spsc::Queue<T,_> as core::iter::traits::collect::IntoIterator>::into_iter
  call void @"_ZN108_$LT$$RF$mut$u20$heapless..spsc..Queue$LT$T$C$_$GT$$u20$as$u20$core..iter..traits..collect..IntoIterator$GT$9into_iter17h3c0ea4b7b381ec52E"(%"heapless::spsc::IterMut<(app::P1_T, u8), 3_usize>"* noalias nocapture sret(%"heapless::spsc::IterMut<(app::P1_T, u8), 3_usize>") dereferenceable(12) %_2, %"heapless::spsc::Queue<(app::P1_T, u8), 3_usize>"* align 4 dereferenceable(16) %self) #10, !dbg !1888
  br label %bb1, !dbg !1888

bb1:                                              ; preds = %start
  %0 = bitcast %"heapless::spsc::IterMut<(app::P1_T, u8), 3_usize>"* %iter to i8*, !dbg !1888
  %1 = bitcast %"heapless::spsc::IterMut<(app::P1_T, u8), 3_usize>"* %_2 to i8*, !dbg !1888
  call void @llvm.memcpy.p0i8.p0i8.i32(i8* align 4 %0, i8* align 4 %1, i32 12, i1 false), !dbg !1888
  br label %bb2, !dbg !1889

bb2:                                              ; preds = %bb4, %bb1
; call <heapless::spsc::IterMut<T,_> as core::iter::traits::iterator::Iterator>::next
  %2 = call align 1 dereferenceable_or_null(2) i8* @"_ZN95_$LT$heapless..spsc..IterMut$LT$T$C$_$GT$$u20$as$u20$core..iter..traits..iterator..Iterator$GT$4next17h4d3320e7f4c35bbcE"(%"heapless::spsc::IterMut<(app::P1_T, u8), 3_usize>"* align 4 dereferenceable(12) %iter) #10, !dbg !1887
  store i8* %2, i8** %_5, align 4, !dbg !1887
  br label %bb3, !dbg !1887

bb3:                                              ; preds = %bb2
  %3 = bitcast i8** %_5 to {}**, !dbg !1887
  %4 = load {}*, {}** %3, align 4, !dbg !1887
  %5 = icmp eq {}* %4, null, !dbg !1887
  %_8 = select i1 %5, i32 0, i32 1, !dbg !1887
  switch i32 %_8, label %bb5 [
    i32 0, label %bb6
    i32 1, label %bb4
  ], !dbg !1887

bb5:                                              ; preds = %bb3
  unreachable, !dbg !1887

bb6:                                              ; preds = %bb3
  ret void, !dbg !1890

bb4:                                              ; preds = %bb3
  %6 = bitcast i8** %_5 to { i8, i8 }**, !dbg !1891
  %item = load { i8, i8 }*, { i8, i8 }** %6, align 4, !dbg !1891, !nonnull !59
  store { i8, i8 }* %item, { i8, i8 }** %item.dbg.spill, align 4, !dbg !1891
  call void @llvm.dbg.declare(metadata { i8, i8 }** %item.dbg.spill, metadata !1884, metadata !DIExpression()), !dbg !1892
  br label %bb2, !dbg !1893
}

; <&mut heapless::spsc::Queue<T,_> as core::iter::traits::collect::IntoIterator>::into_iter
; Function Attrs: nounwind
define internal void @"_ZN108_$LT$$RF$mut$u20$heapless..spsc..Queue$LT$T$C$_$GT$$u20$as$u20$core..iter..traits..collect..IntoIterator$GT$9into_iter17h3c0ea4b7b381ec52E"(%"heapless::spsc::IterMut<(app::P1_T, u8), 3_usize>"* noalias nocapture sret(%"heapless::spsc::IterMut<(app::P1_T, u8), 3_usize>") dereferenceable(12) %0, %"heapless::spsc::Queue<(app::P1_T, u8), 3_usize>"* align 4 dereferenceable(16) %self) unnamed_addr #0 !dbg !1894 {
start:
  %self.dbg.spill = alloca %"heapless::spsc::Queue<(app::P1_T, u8), 3_usize>"*, align 4
  store %"heapless::spsc::Queue<(app::P1_T, u8), 3_usize>"* %self, %"heapless::spsc::Queue<(app::P1_T, u8), 3_usize>"** %self.dbg.spill, align 4
  call void @llvm.dbg.declare(metadata %"heapless::spsc::Queue<(app::P1_T, u8), 3_usize>"** %self.dbg.spill, metadata !1897, metadata !DIExpression()), !dbg !1898
; call heapless::spsc::Queue<T,_>::iter_mut
  call void @"_ZN8heapless4spsc18Queue$LT$T$C$_$GT$8iter_mut17hf08aa4f1cb5ae041E"(%"heapless::spsc::IterMut<(app::P1_T, u8), 3_usize>"* noalias nocapture sret(%"heapless::spsc::IterMut<(app::P1_T, u8), 3_usize>") dereferenceable(12) %0, %"heapless::spsc::Queue<(app::P1_T, u8), 3_usize>"* align 4 dereferenceable(16) %self) #10, !dbg !1899
  br label %bb1, !dbg !1899

bb1:                                              ; preds = %start
  ret void, !dbg !1900
}

; <&mut heapless::spsc::Queue<T,_> as core::iter::traits::collect::IntoIterator>::into_iter
; Function Attrs: nounwind
define internal void @"_ZN108_$LT$$RF$mut$u20$heapless..spsc..Queue$LT$T$C$_$GT$$u20$as$u20$core..iter..traits..collect..IntoIterator$GT$9into_iter17h73e2329ae13ae5ccE"(%"heapless::spsc::IterMut<u8, 2_usize>"* noalias nocapture sret(%"heapless::spsc::IterMut<u8, 2_usize>") dereferenceable(12) %0, %"heapless::spsc::Queue<u8, 2_usize>"* align 4 dereferenceable(12) %self) unnamed_addr #0 !dbg !1901 {
start:
  %self.dbg.spill = alloca %"heapless::spsc::Queue<u8, 2_usize>"*, align 4
  store %"heapless::spsc::Queue<u8, 2_usize>"* %self, %"heapless::spsc::Queue<u8, 2_usize>"** %self.dbg.spill, align 4
  call void @llvm.dbg.declare(metadata %"heapless::spsc::Queue<u8, 2_usize>"** %self.dbg.spill, metadata !1903, metadata !DIExpression()), !dbg !1904
; call heapless::spsc::Queue<T,_>::iter_mut
  call void @"_ZN8heapless4spsc18Queue$LT$T$C$_$GT$8iter_mut17h39603bd78c1eaa58E"(%"heapless::spsc::IterMut<u8, 2_usize>"* noalias nocapture sret(%"heapless::spsc::IterMut<u8, 2_usize>") dereferenceable(12) %0, %"heapless::spsc::Queue<u8, 2_usize>"* align 4 dereferenceable(12) %self) #10, !dbg !1905
  br label %bb1, !dbg !1905

bb1:                                              ; preds = %start
  ret void, !dbg !1906
}

; heapless::spsc::Consumer<T,_>::dequeue
; Function Attrs: inlinehint nounwind
define internal { i8, i8 } @"_ZN8heapless4spsc21Consumer$LT$T$C$_$GT$7dequeue17h4076781cd95e852cE"(i32** align 4 dereferenceable(4) %self) unnamed_addr #1 !dbg !1907 {
start:
  %self.dbg.spill = alloca i32**, align 4
  store i32** %self, i32*** %self.dbg.spill, align 4
  call void @llvm.dbg.declare(metadata i32*** %self.dbg.spill, metadata !1912, metadata !DIExpression()), !dbg !1913
  %0 = bitcast i32** %self to %"heapless::spsc::Queue<(app::P1_T, u8), 3_usize>"**, !dbg !1914
  %_2 = load %"heapless::spsc::Queue<(app::P1_T, u8), 3_usize>"*, %"heapless::spsc::Queue<(app::P1_T, u8), 3_usize>"** %0, align 4, !dbg !1914, !nonnull !59
; call heapless::spsc::Queue<T,_>::inner_dequeue
  %1 = call { i8, i8 } @"_ZN8heapless4spsc18Queue$LT$T$C$_$GT$13inner_dequeue17hac125db0968c02faE"(%"heapless::spsc::Queue<(app::P1_T, u8), 3_usize>"* align 4 dereferenceable(16) %_2) #10, !dbg !1914
  %2 = extractvalue { i8, i8 } %1, 0, !dbg !1914
  %3 = extractvalue { i8, i8 } %1, 1, !dbg !1914
  br label %bb1, !dbg !1914

bb1:                                              ; preds = %start
  %4 = insertvalue { i8, i8 } undef, i8 %2, 0, !dbg !1915
  %5 = insertvalue { i8, i8 } %4, i8 %3, 1, !dbg !1915
  ret { i8, i8 } %5, !dbg !1915
}

; heapless::spsc::Producer<T,_>::enqueue_unchecked
; Function Attrs: inlinehint nounwind
define internal void @"_ZN8heapless4spsc21Producer$LT$T$C$_$GT$17enqueue_unchecked17h2ab9bd46dff93908E"(i32** align 4 dereferenceable(4) %self, i8 %val) unnamed_addr #1 !dbg !1916 {
start:
  %val.dbg.spill = alloca i8, align 1
  %self.dbg.spill = alloca i32**, align 4
  store i32** %self, i32*** %self.dbg.spill, align 4
  call void @llvm.dbg.declare(metadata i32*** %self.dbg.spill, metadata !1921, metadata !DIExpression()), !dbg !1923
  store i8 %val, i8* %val.dbg.spill, align 1
  call void @llvm.dbg.declare(metadata i8* %val.dbg.spill, metadata !1922, metadata !DIExpression()), !dbg !1924
  %0 = bitcast i32** %self to %"heapless::spsc::Queue<u8, 2_usize>"**, !dbg !1925
  %_3 = load %"heapless::spsc::Queue<u8, 2_usize>"*, %"heapless::spsc::Queue<u8, 2_usize>"** %0, align 4, !dbg !1925, !nonnull !59
; call heapless::spsc::Queue<T,_>::inner_enqueue_unchecked
  call void @"_ZN8heapless4spsc18Queue$LT$T$C$_$GT$23inner_enqueue_unchecked17h89c8e0b55bfe44b7E"(%"heapless::spsc::Queue<u8, 2_usize>"* align 4 dereferenceable(12) %_3, i8 %val) #10, !dbg !1925
  br label %bb1, !dbg !1925

bb1:                                              ; preds = %start
  ret void, !dbg !1926
}

; core::ptr::const_ptr::<impl *const T>::read
; Function Attrs: inlinehint nounwind
define internal { i8, i8 } @"_ZN4core3ptr9const_ptr33_$LT$impl$u20$$BP$const$u20$T$GT$4read17h5b4f761fdb64603eE"({ i8, i8 }* %self) unnamed_addr #1 !dbg !1927 {
start:
  %self.dbg.spill = alloca { i8, i8 }*, align 4
  store { i8, i8 }* %self, { i8, i8 }** %self.dbg.spill, align 4
  call void @llvm.dbg.declare(metadata { i8, i8 }** %self.dbg.spill, metadata !1935, metadata !DIExpression()), !dbg !1936
; call core::ptr::read
  %0 = call { i8, i8 } @_ZN4core3ptr4read17haa4dd29abe51efc1E({ i8, i8 }* %self) #10, !dbg !1937
  %1 = extractvalue { i8, i8 } %0, 0, !dbg !1937
  %2 = trunc i8 %1 to i1, !dbg !1937
  %3 = extractvalue { i8, i8 } %0, 1, !dbg !1937
  br label %bb1, !dbg !1937

bb1:                                              ; preds = %start
  %4 = zext i1 %2 to i8, !dbg !1938
  %5 = insertvalue { i8, i8 } undef, i8 %4, 0, !dbg !1938
  %6 = insertvalue { i8, i8 } %5, i8 %3, 1, !dbg !1938
  ret { i8, i8 } %6, !dbg !1938
}

; core::ptr::const_ptr::<impl *const T>::read
; Function Attrs: inlinehint nounwind
define internal void @"_ZN4core3ptr9const_ptr33_$LT$impl$u20$$BP$const$u20$T$GT$4read17h60f26a767622c7c8E"({}* %self) unnamed_addr #1 !dbg !1939 {
start:
  %self.dbg.spill = alloca {}*, align 4
  store {}* %self, {}** %self.dbg.spill, align 4
  call void @llvm.dbg.declare(metadata {}** %self.dbg.spill, metadata !1943, metadata !DIExpression()), !dbg !1944
; call core::ptr::read
  call void @_ZN4core3ptr4read17h2454c075427a7a1dE({}* %self) #10, !dbg !1945
  br label %bb1, !dbg !1945

bb1:                                              ; preds = %start
  ret void, !dbg !1946
}

; core::ptr::const_ptr::<impl *const T>::read
; Function Attrs: inlinehint nounwind
define internal i8 @"_ZN4core3ptr9const_ptr33_$LT$impl$u20$$BP$const$u20$T$GT$4read17heb62b597f26bdea0E"(i8* %self) unnamed_addr #1 !dbg !1947 {
start:
  %self.dbg.spill = alloca i8*, align 4
  store i8* %self, i8** %self.dbg.spill, align 4
  call void @llvm.dbg.declare(metadata i8** %self.dbg.spill, metadata !1952, metadata !DIExpression()), !dbg !1953
; call core::ptr::read
  %0 = call i8 @_ZN4core3ptr4read17h7efa0474a61340eeE(i8* %self) #10, !dbg !1954
  br label %bb1, !dbg !1954

bb1:                                              ; preds = %start
  ret i8 %0, !dbg !1955
}

; core::ptr::const_ptr::<impl *const [T]>::as_ptr
; Function Attrs: inlinehint nounwind
define internal i8* @"_ZN4core3ptr9const_ptr43_$LT$impl$u20$$BP$const$u20$$u5b$T$u5d$$GT$6as_ptr17h382d54ca28161cafE"([0 x i8]* %self.0, i32 %self.1) unnamed_addr #1 !dbg !1956 {
start:
  %self.dbg.spill = alloca { [0 x i8]*, i32 }, align 4
  %0 = getelementptr inbounds { [0 x i8]*, i32 }, { [0 x i8]*, i32 }* %self.dbg.spill, i32 0, i32 0
  store [0 x i8]* %self.0, [0 x i8]** %0, align 4
  %1 = getelementptr inbounds { [0 x i8]*, i32 }, { [0 x i8]*, i32 }* %self.dbg.spill, i32 0, i32 1
  store i32 %self.1, i32* %1, align 4
  call void @llvm.dbg.declare(metadata { [0 x i8]*, i32 }* %self.dbg.spill, metadata !1966, metadata !DIExpression()), !dbg !1969
  %2 = bitcast [0 x i8]* %self.0 to i8*, !dbg !1970
  ret i8* %2, !dbg !1971
}

; core::ptr::const_ptr::<impl *const [T]>::as_ptr
; Function Attrs: inlinehint nounwind
define internal { i8, i8 }* @"_ZN4core3ptr9const_ptr43_$LT$impl$u20$$BP$const$u20$$u5b$T$u5d$$GT$6as_ptr17h8e58d8ff10279c42E"([0 x { i8, i8 }]* %self.0, i32 %self.1) unnamed_addr #1 !dbg !1972 {
start:
  %self.dbg.spill = alloca { [0 x { i8, i8 }]*, i32 }, align 4
  %0 = getelementptr inbounds { [0 x { i8, i8 }]*, i32 }, { [0 x { i8, i8 }]*, i32 }* %self.dbg.spill, i32 0, i32 0
  store [0 x { i8, i8 }]* %self.0, [0 x { i8, i8 }]** %0, align 4
  %1 = getelementptr inbounds { [0 x { i8, i8 }]*, i32 }, { [0 x { i8, i8 }]*, i32 }* %self.dbg.spill, i32 0, i32 1
  store i32 %self.1, i32* %1, align 4
  call void @llvm.dbg.declare(metadata { [0 x { i8, i8 }]*, i32 }* %self.dbg.spill, metadata !1981, metadata !DIExpression()), !dbg !1984
  %2 = bitcast [0 x { i8, i8 }]* %self.0 to { i8, i8 }*, !dbg !1985
  ret { i8, i8 }* %2, !dbg !1986
}

; core::ptr::const_ptr::<impl *const [T]>::as_ptr
; Function Attrs: inlinehint nounwind
define internal %"core::mem::maybe_uninit::MaybeUninit<()>"* @"_ZN4core3ptr9const_ptr43_$LT$impl$u20$$BP$const$u20$$u5b$T$u5d$$GT$6as_ptr17hbe58f58226b6e7d4E"([0 x %"core::mem::maybe_uninit::MaybeUninit<()>"]* %self.0, i32 %self.1) unnamed_addr #1 !dbg !1987 {
start:
  %self.dbg.spill = alloca { [0 x %"core::mem::maybe_uninit::MaybeUninit<()>"]*, i32 }, align 4
  %0 = getelementptr inbounds { [0 x %"core::mem::maybe_uninit::MaybeUninit<()>"]*, i32 }, { [0 x %"core::mem::maybe_uninit::MaybeUninit<()>"]*, i32 }* %self.dbg.spill, i32 0, i32 0
  store [0 x %"core::mem::maybe_uninit::MaybeUninit<()>"]* %self.0, [0 x %"core::mem::maybe_uninit::MaybeUninit<()>"]** %0, align 4
  %1 = getelementptr inbounds { [0 x %"core::mem::maybe_uninit::MaybeUninit<()>"]*, i32 }, { [0 x %"core::mem::maybe_uninit::MaybeUninit<()>"]*, i32 }* %self.dbg.spill, i32 0, i32 1
  store i32 %self.1, i32* %1, align 4
  call void @llvm.dbg.declare(metadata { [0 x %"core::mem::maybe_uninit::MaybeUninit<()>"]*, i32 }* %self.dbg.spill, metadata !1996, metadata !DIExpression()), !dbg !1999
  %2 = bitcast [0 x %"core::mem::maybe_uninit::MaybeUninit<()>"]* %self.0 to %"core::mem::maybe_uninit::MaybeUninit<()>"*, !dbg !2000
  ret %"core::mem::maybe_uninit::MaybeUninit<()>"* %2, !dbg !2001
}

; core::ptr::read
; Function Attrs: inlinehint nounwind
define internal void @_ZN4core3ptr4read17h2454c075427a7a1dE({}* %src) unnamed_addr #1 !dbg !2002 {
start:
  %self.dbg.spill.i = alloca %"core::mem::maybe_uninit::MaybeUninit<()>"*, align 4
  %0 = alloca %"core::mem::maybe_uninit::MaybeUninit<()>", align 1
  %src.dbg.spill = alloca {}*, align 4
  %tmp = alloca %"core::mem::maybe_uninit::MaybeUninit<()>", align 1
  store {}* %src, {}** %src.dbg.spill, align 4
  call void @llvm.dbg.declare(metadata {}** %src.dbg.spill, metadata !2004, metadata !DIExpression()), !dbg !2007
  call void @llvm.dbg.declare(metadata %"core::mem::maybe_uninit::MaybeUninit<()>"* %tmp, metadata !2005, metadata !DIExpression()), !dbg !2008
  %1 = bitcast %"core::mem::maybe_uninit::MaybeUninit<()>"* %0 to {}*, !dbg !2009
  br label %bb1, !dbg !2012

bb1:                                              ; preds = %start
  store %"core::mem::maybe_uninit::MaybeUninit<()>"* %tmp, %"core::mem::maybe_uninit::MaybeUninit<()>"** %self.dbg.spill.i, align 4
  call void @llvm.dbg.declare(metadata %"core::mem::maybe_uninit::MaybeUninit<()>"** %self.dbg.spill.i, metadata !457, metadata !DIExpression()), !dbg !2013
  %2 = bitcast %"core::mem::maybe_uninit::MaybeUninit<()>"* %tmp to {}*, !dbg !2015
  br label %bb2, !dbg !2016

bb2:                                              ; preds = %bb1
  %3 = bitcast {}* %2 to i8*, !dbg !2017
  %4 = bitcast {}* %src to i8*, !dbg !2017
  call void @llvm.memcpy.p0i8.p0i8.i32(i8* align 1 %3, i8* align 1 %4, i32 0, i1 false), !dbg !2017
  call void @llvm.dbg.declare(metadata %"core::mem::maybe_uninit::MaybeUninit<()>"* undef, metadata !2018, metadata !DIExpression()), !dbg !2035
  call void @llvm.dbg.declare(metadata %"core::mem::manually_drop::ManuallyDrop<()>"* undef, metadata !2037, metadata !DIExpression()), !dbg !2042
  br label %bb3, !dbg !2044

bb3:                                              ; preds = %bb2
  ret void, !dbg !2045
}

; core::ptr::read
; Function Attrs: inlinehint nounwind
define internal i8 @_ZN4core3ptr4read17h7efa0474a61340eeE(i8* %src) unnamed_addr #1 !dbg !2046 {
start:
  %slot.dbg.spill.i.i = alloca i8, align 1
  %self.dbg.spill.i1 = alloca i8, align 1
  %self.dbg.spill.i = alloca i8*, align 4
  %0 = alloca i8, align 1
  %src.dbg.spill = alloca i8*, align 4
  %tmp = alloca i8, align 1
  store i8* %src, i8** %src.dbg.spill, align 4
  call void @llvm.dbg.declare(metadata i8** %src.dbg.spill, metadata !2048, metadata !DIExpression()), !dbg !2051
  call void @llvm.dbg.declare(metadata i8* %tmp, metadata !2049, metadata !DIExpression()), !dbg !2052
  %1 = bitcast i8* %0 to {}*, !dbg !2053
  %2 = load i8, i8* %0, align 1, !dbg !2058
  store i8 %2, i8* %tmp, align 1, !dbg !2059
  br label %bb1, !dbg !2059

bb1:                                              ; preds = %start
  store i8* %tmp, i8** %self.dbg.spill.i, align 4
  call void @llvm.dbg.declare(metadata i8** %self.dbg.spill.i, metadata !2060, metadata !DIExpression()), !dbg !2066
  br label %bb2, !dbg !2068

bb2:                                              ; preds = %bb1
  call void @llvm.memcpy.p0i8.p0i8.i32(i8* align 1 %tmp, i8* align 1 %src, i32 1, i1 false), !dbg !2069
  %_6 = load i8, i8* %tmp, align 1, !dbg !2070
  store i8 %_6, i8* %self.dbg.spill.i1, align 1
  call void @llvm.dbg.declare(metadata i8* %self.dbg.spill.i1, metadata !2071, metadata !DIExpression()), !dbg !2076
  store i8 %_6, i8* %slot.dbg.spill.i.i, align 1
  call void @llvm.dbg.declare(metadata i8* %slot.dbg.spill.i.i, metadata !2078, metadata !DIExpression()), !dbg !2083
  br label %bb3, !dbg !2070

bb3:                                              ; preds = %bb2
  ret i8 %_6, !dbg !2085
}

; core::ptr::read
; Function Attrs: inlinehint nounwind
define internal { i8, i8 } @_ZN4core3ptr4read17haa4dd29abe51efc1E({ i8, i8 }* %src) unnamed_addr #1 !dbg !2086 {
start:
  %slot.dbg.spill.i.i = alloca { i8, i8 }, align 1
  %self.dbg.spill.i1 = alloca { i8, i8 }, align 1
  %self.dbg.spill.i = alloca { i8, i8 }*, align 4
  %0 = alloca { i8, i8 }, align 1
  %src.dbg.spill = alloca { i8, i8 }*, align 4
  %tmp = alloca { i8, i8 }, align 1
  store { i8, i8 }* %src, { i8, i8 }** %src.dbg.spill, align 4
  call void @llvm.dbg.declare(metadata { i8, i8 }** %src.dbg.spill, metadata !2088, metadata !DIExpression()), !dbg !2091
  call void @llvm.dbg.declare(metadata { i8, i8 }* %tmp, metadata !2089, metadata !DIExpression()), !dbg !2092
  %1 = bitcast { i8, i8 }* %0 to {}*, !dbg !2093
  %2 = getelementptr inbounds { i8, i8 }, { i8, i8 }* %0, i32 0, i32 0, !dbg !2098
  %3 = load i8, i8* %2, align 1, !dbg !2098
  %4 = getelementptr inbounds { i8, i8 }, { i8, i8 }* %0, i32 0, i32 1, !dbg !2098
  %5 = load i8, i8* %4, align 1, !dbg !2098
  %6 = insertvalue { i8, i8 } undef, i8 %3, 0, !dbg !2098
  %7 = insertvalue { i8, i8 } %6, i8 %5, 1, !dbg !2098
  store { i8, i8 } %7, { i8, i8 }* %tmp, align 1, !dbg !2099
  br label %bb1, !dbg !2099

bb1:                                              ; preds = %start
  store { i8, i8 }* %tmp, { i8, i8 }** %self.dbg.spill.i, align 4
  call void @llvm.dbg.declare(metadata { i8, i8 }** %self.dbg.spill.i, metadata !2100, metadata !DIExpression()), !dbg !2107
  br label %bb2, !dbg !2109

bb2:                                              ; preds = %bb1
  %8 = bitcast { i8, i8 }* %tmp to i8*, !dbg !2110
  %9 = bitcast { i8, i8 }* %src to i8*, !dbg !2110
  call void @llvm.memcpy.p0i8.p0i8.i32(i8* align 1 %8, i8* align 1 %9, i32 2, i1 false), !dbg !2110
  %10 = getelementptr inbounds { i8, i8 }, { i8, i8 }* %tmp, i32 0, i32 0, !dbg !2111
  %_6.0 = load i8, i8* %10, align 1, !dbg !2111
  %11 = getelementptr inbounds { i8, i8 }, { i8, i8 }* %tmp, i32 0, i32 1, !dbg !2111
  %_6.1 = load i8, i8* %11, align 1, !dbg !2111
  %12 = getelementptr inbounds { i8, i8 }, { i8, i8 }* %self.dbg.spill.i1, i32 0, i32 0
  store i8 %_6.0, i8* %12, align 1
  %13 = getelementptr inbounds { i8, i8 }, { i8, i8 }* %self.dbg.spill.i1, i32 0, i32 1
  store i8 %_6.1, i8* %13, align 1
  call void @llvm.dbg.declare(metadata { i8, i8 }* %self.dbg.spill.i1, metadata !2112, metadata !DIExpression()), !dbg !2117
  %_3.0.i = trunc i8 %_6.0 to i1, !dbg !2119
  %14 = getelementptr inbounds { i8, i8 }, { i8, i8 }* %slot.dbg.spill.i.i, i32 0, i32 0
  %15 = zext i1 %_3.0.i to i8
  store i8 %15, i8* %14, align 1
  %16 = getelementptr inbounds { i8, i8 }, { i8, i8 }* %slot.dbg.spill.i.i, i32 0, i32 1
  store i8 %_6.1, i8* %16, align 1
  call void @llvm.dbg.declare(metadata { i8, i8 }* %slot.dbg.spill.i.i, metadata !2120, metadata !DIExpression()), !dbg !2125
  %17 = zext i1 %_3.0.i to i8, !dbg !2127
  %18 = insertvalue { i8, i8 } undef, i8 %17, 0, !dbg !2127
  %19 = insertvalue { i8, i8 } %18, i8 %_6.1, 1, !dbg !2127
  %20 = zext i1 %_3.0.i to i8, !dbg !2128
  %21 = insertvalue { i8, i8 } undef, i8 %20, 0, !dbg !2128
  %22 = insertvalue { i8, i8 } %21, i8 %_6.1, 1, !dbg !2128
  %23 = extractvalue { i8, i8 } %22, 0, !dbg !2111
  %24 = trunc i8 %23 to i1, !dbg !2111
  %25 = extractvalue { i8, i8 } %22, 1, !dbg !2111
  br label %bb3, !dbg !2111

bb3:                                              ; preds = %bb2
  %26 = zext i1 %24 to i8, !dbg !2129
  %27 = insertvalue { i8, i8 } undef, i8 %26, 0, !dbg !2129
  %28 = insertvalue { i8, i8 } %27, i8 %25, 1, !dbg !2129
  ret { i8, i8 } %28, !dbg !2129
}

; core::ptr::write
; Function Attrs: inlinehint nounwind
define internal void @_ZN4core3ptr5write17h3411c4701a77cae5E({}* %dst) unnamed_addr #1 !dbg !2130 {
start:
  %dst.dbg.spill = alloca {}*, align 4
  %src = alloca {}, align 1
  store {}* %dst, {}** %dst.dbg.spill, align 4
  call void @llvm.dbg.declare(metadata {}** %dst.dbg.spill, metadata !2132, metadata !DIExpression()), !dbg !2134
  call void @llvm.dbg.declare(metadata {}* %src, metadata !2133, metadata !DIExpression()), !dbg !2135
  %0 = bitcast {}* %dst to i8*, !dbg !2136
  %1 = bitcast {}* %src to i8*, !dbg !2136
  call void @llvm.memcpy.p0i8.p0i8.i32(i8* align 1 %0, i8* align 1 %1, i32 0, i1 false), !dbg !2136
  ret void, !dbg !2137
}

; core::ptr::write
; Function Attrs: inlinehint nounwind
define internal void @_ZN4core3ptr5write17h44c3a12bdde493dfE(i8* %dst, i8 %0) unnamed_addr #1 !dbg !2138 {
start:
  %dst.dbg.spill = alloca i8*, align 4
  %src = alloca i8, align 1
  store i8 %0, i8* %src, align 1
  store i8* %dst, i8** %dst.dbg.spill, align 4
  call void @llvm.dbg.declare(metadata i8** %dst.dbg.spill, metadata !2142, metadata !DIExpression()), !dbg !2144
  call void @llvm.dbg.declare(metadata i8* %src, metadata !2143, metadata !DIExpression()), !dbg !2145
  call void @llvm.memcpy.p0i8.p0i8.i32(i8* align 1 %dst, i8* align 1 %src, i32 1, i1 false), !dbg !2146
  ret void, !dbg !2147
}

; core::ptr::write
; Function Attrs: inlinehint nounwind
define internal void @_ZN4core3ptr5write17h61a4480ba65cfdcfE(i8* %dst, i8 %0) unnamed_addr #1 !dbg !2148 {
start:
  %dst.dbg.spill = alloca i8*, align 4
  %src = alloca i8, align 1
  store i8 %0, i8* %src, align 1
  store i8* %dst, i8** %dst.dbg.spill, align 4
  call void @llvm.dbg.declare(metadata i8** %dst.dbg.spill, metadata !2150, metadata !DIExpression()), !dbg !2152
  call void @llvm.dbg.declare(metadata i8* %src, metadata !2151, metadata !DIExpression()), !dbg !2153
  call void @llvm.memcpy.p0i8.p0i8.i32(i8* align 1 %dst, i8* align 1 %src, i32 1, i1 false), !dbg !2154
  ret void, !dbg !2155
}

; core::ptr::write
; Function Attrs: inlinehint nounwind
define internal void @_ZN4core3ptr5write17h82b9f7fb1924c0bdE(i64* %dst, i64 %0) unnamed_addr #1 !dbg !2156 {
start:
  %dst.dbg.spill = alloca i64*, align 4
  %src = alloca i64, align 8
  store i64 %0, i64* %src, align 8
  store i64* %dst, i64** %dst.dbg.spill, align 4
  call void @llvm.dbg.declare(metadata i64** %dst.dbg.spill, metadata !2158, metadata !DIExpression()), !dbg !2160
  call void @llvm.dbg.declare(metadata i64* %src, metadata !2159, metadata !DIExpression()), !dbg !2161
  %1 = bitcast i64* %dst to i8*, !dbg !2162
  %2 = bitcast i64* %src to i8*, !dbg !2162
  call void @llvm.memcpy.p0i8.p0i8.i32(i8* align 8 %1, i8* align 8 %2, i32 8, i1 false), !dbg !2162
  ret void, !dbg !2163
}

; core::ptr::write
; Function Attrs: inlinehint nounwind
define internal void @_ZN4core3ptr5write17hcf998c1cb7ac1d77E({ i8, i8 }* %dst, i8 %0, i8 %1) unnamed_addr #1 !dbg !2164 {
start:
  %dst.dbg.spill = alloca { i8, i8 }*, align 4
  %src = alloca { i8, i8 }, align 1
  %2 = getelementptr inbounds { i8, i8 }, { i8, i8 }* %src, i32 0, i32 0
  store i8 %0, i8* %2, align 1
  %3 = getelementptr inbounds { i8, i8 }, { i8, i8 }* %src, i32 0, i32 1
  store i8 %1, i8* %3, align 1
  store { i8, i8 }* %dst, { i8, i8 }** %dst.dbg.spill, align 4
  call void @llvm.dbg.declare(metadata { i8, i8 }** %dst.dbg.spill, metadata !2166, metadata !DIExpression()), !dbg !2168
  call void @llvm.dbg.declare(metadata { i8, i8 }* %src, metadata !2167, metadata !DIExpression()), !dbg !2169
  %4 = bitcast { i8, i8 }* %dst to i8*, !dbg !2170
  %5 = bitcast { i8, i8 }* %src to i8*, !dbg !2170
  call void @llvm.memcpy.p0i8.p0i8.i32(i8* align 1 %4, i8* align 1 %5, i32 2, i1 false), !dbg !2170
  ret void, !dbg !2171
}

; <T as core::convert::Into<U>>::into
; Function Attrs: nounwind
define internal void @"_ZN50_$LT$T$u20$as$u20$core..convert..Into$LT$U$GT$$GT$4into17hb837751d062ab74fE"() unnamed_addr #0 !dbg !2172 {
start:
  %self.dbg.spill = alloca %"cortex_m::peripheral::Peripherals", align 1
  call void @llvm.dbg.declare(metadata %"cortex_m::peripheral::Peripherals"* %self.dbg.spill, metadata !2177, metadata !DIExpression()), !dbg !2181
; call <T as core::convert::From<T>>::from
  call void @"_ZN50_$LT$T$u20$as$u20$core..convert..From$LT$T$GT$$GT$4from17hae6616355c332270E"() #10, !dbg !2182
  br label %bb1, !dbg !2182

bb1:                                              ; preds = %start
  ret void, !dbg !2183
}

; <T as core::convert::From<T>>::from
; Function Attrs: nounwind
define internal void @"_ZN50_$LT$T$u20$as$u20$core..convert..From$LT$T$GT$$GT$4from17hae6616355c332270E"() unnamed_addr #0 !dbg !2184 {
start:
  %t.dbg.spill = alloca %"cortex_m::peripheral::Peripherals", align 1
  call void @llvm.dbg.declare(metadata %"cortex_m::peripheral::Peripherals"* %t.dbg.spill, metadata !2187, metadata !DIExpression()), !dbg !2189
  ret void, !dbg !2190
}

; core::cell::Cell<T>::new
; Function Attrs: inlinehint nounwind
define internal i8 @"_ZN4core4cell13Cell$LT$T$GT$3new17h0ec9730ff8e64e09E"(i8 %value) unnamed_addr #1 !dbg !2191 {
start:
  %value.dbg.spill.i = alloca i8, align 1
  %0 = alloca i8, align 1
  %value.dbg.spill = alloca i8, align 1
  %1 = alloca i8, align 1
  store i8 %value, i8* %value.dbg.spill, align 1
  call void @llvm.dbg.declare(metadata i8* %value.dbg.spill, metadata !2195, metadata !DIExpression()), !dbg !2196
  store i8 %value, i8* %value.dbg.spill.i, align 1
  call void @llvm.dbg.declare(metadata i8* %value.dbg.spill.i, metadata !2197, metadata !DIExpression()), !dbg !2202
  store i8 %value, i8* %0, align 1, !dbg !2204
  %2 = load i8, i8* %0, align 1, !dbg !2205
  br label %bb1, !dbg !2206

bb1:                                              ; preds = %start
  store i8 %2, i8* %1, align 1, !dbg !2207
  %3 = load i8, i8* %1, align 1, !dbg !2208
  ret i8 %3, !dbg !2208
}

; <core::ops::range::Range<T> as core::iter::range::RangeIteratorImpl>::spec_next
; Function Attrs: inlinehint nounwind
define internal { i8, i8 } @"_ZN89_$LT$core..ops..range..Range$LT$T$GT$$u20$as$u20$core..iter..range..RangeIteratorImpl$GT$9spec_next17he4c612b2254b2254E"({ i8, i8 }* align 1 dereferenceable(2) %self) unnamed_addr #1 !dbg !2209 {
start:
  %n.dbg.spill = alloca i8, align 1
  %self.dbg.spill = alloca { i8, i8 }*, align 4
  %0 = alloca { i8, i8 }, align 1
  store { i8, i8 }* %self, { i8, i8 }** %self.dbg.spill, align 4
  call void @llvm.dbg.declare(metadata { i8, i8 }** %self.dbg.spill, metadata !2226, metadata !DIExpression()), !dbg !2229
  %_3 = bitcast { i8, i8 }* %self to i8*, !dbg !2230
  %_4 = getelementptr inbounds { i8, i8 }, { i8, i8 }* %self, i32 0, i32 1, !dbg !2231
; call core::cmp::impls::<impl core::cmp::PartialOrd for u8>::lt
  %_2 = call zeroext i1 @"_ZN4core3cmp5impls54_$LT$impl$u20$core..cmp..PartialOrd$u20$for$u20$u8$GT$2lt17h931a40755a640d7eE"(i8* align 1 dereferenceable(1) %_3, i8* align 1 dereferenceable(1) %_4) #10, !dbg !2230
  br label %bb1, !dbg !2230

bb1:                                              ; preds = %start
  br i1 %_2, label %bb2, label %bb6, !dbg !2230

bb6:                                              ; preds = %bb1
  %1 = bitcast { i8, i8 }* %0 to i8*, !dbg !2232
  store i8 0, i8* %1, align 1, !dbg !2232
  br label %bb7, !dbg !2233

bb2:                                              ; preds = %bb1
  %_7 = bitcast { i8, i8 }* %self to i8*, !dbg !2234
; call core::clone::impls::<impl core::clone::Clone for u8>::clone
  %_6 = call i8 @"_ZN4core5clone5impls51_$LT$impl$u20$core..clone..Clone$u20$for$u20$u8$GT$5clone17h0bd6b78f87b73bf1E"(i8* align 1 dereferenceable(1) %_7) #10, !dbg !2234
  br label %bb3, !dbg !2234

bb3:                                              ; preds = %bb2
; call <u8 as core::iter::range::Step>::forward_unchecked
  %n = call i8 @"_ZN46_$LT$u8$u20$as$u20$core..iter..range..Step$GT$17forward_unchecked17ha8d94eade2e46a9aE"(i8 %_6, i32 1) #10, !dbg !2235
  store i8 %n, i8* %n.dbg.spill, align 1, !dbg !2235
  call void @llvm.dbg.declare(metadata i8* %n.dbg.spill, metadata !2227, metadata !DIExpression()), !dbg !2236
  br label %bb4, !dbg !2235

bb4:                                              ; preds = %bb3
  %_10 = bitcast { i8, i8 }* %self to i8*, !dbg !2237
; call core::mem::replace
  %_8 = call i8 @_ZN4core3mem7replace17h6f6f0ffe151c8c1aE(i8* align 1 dereferenceable(1) %_10, i8 %n) #10, !dbg !2238
  br label %bb5, !dbg !2238

bb5:                                              ; preds = %bb4
  %2 = bitcast { i8, i8 }* %0 to %"core::option::Option<u8>::Some"*, !dbg !2239
  %3 = getelementptr inbounds %"core::option::Option<u8>::Some", %"core::option::Option<u8>::Some"* %2, i32 0, i32 1, !dbg !2239
  store i8 %_8, i8* %3, align 1, !dbg !2239
  %4 = bitcast { i8, i8 }* %0 to i8*, !dbg !2239
  store i8 1, i8* %4, align 1, !dbg !2239
  br label %bb7, !dbg !2233

bb7:                                              ; preds = %bb6, %bb5
  %5 = getelementptr inbounds { i8, i8 }, { i8, i8 }* %0, i32 0, i32 0, !dbg !2240
  %6 = load i8, i8* %5, align 1, !dbg !2240, !range !436
  %7 = trunc i8 %6 to i1, !dbg !2240
  %8 = getelementptr inbounds { i8, i8 }, { i8, i8 }* %0, i32 0, i32 1, !dbg !2240
  %9 = load i8, i8* %8, align 1, !dbg !2240
  %10 = zext i1 %7 to i8, !dbg !2240
  %11 = insertvalue { i8, i8 } undef, i8 %10, 0, !dbg !2240
  %12 = insertvalue { i8, i8 } %11, i8 %9, 1, !dbg !2240
  ret { i8, i8 } %12, !dbg !2240
}

; core::iter::range::<impl core::iter::traits::iterator::Iterator for core::ops::range::Range<A>>::next
; Function Attrs: inlinehint nounwind
define internal { i8, i8 } @"_ZN4core4iter5range101_$LT$impl$u20$core..iter..traits..iterator..Iterator$u20$for$u20$core..ops..range..Range$LT$A$GT$$GT$4next17hcdb043e911fa495fE"({ i8, i8 }* align 1 dereferenceable(2) %self) unnamed_addr #1 !dbg !2241 {
start:
  %self.dbg.spill = alloca { i8, i8 }*, align 4
  store { i8, i8 }* %self, { i8, i8 }** %self.dbg.spill, align 4
  call void @llvm.dbg.declare(metadata { i8, i8 }** %self.dbg.spill, metadata !2244, metadata !DIExpression()), !dbg !2247
; call <core::ops::range::Range<T> as core::iter::range::RangeIteratorImpl>::spec_next
  %0 = call { i8, i8 } @"_ZN89_$LT$core..ops..range..Range$LT$T$GT$$u20$as$u20$core..iter..range..RangeIteratorImpl$GT$9spec_next17he4c612b2254b2254E"({ i8, i8 }* align 1 dereferenceable(2) %self) #10, !dbg !2248
  %1 = extractvalue { i8, i8 } %0, 0, !dbg !2248
  %2 = trunc i8 %1 to i1, !dbg !2248
  %3 = extractvalue { i8, i8 } %0, 1, !dbg !2248
  br label %bb1, !dbg !2248

bb1:                                              ; preds = %start
  %4 = zext i1 %2 to i8, !dbg !2249
  %5 = insertvalue { i8, i8 } undef, i8 %4, 0, !dbg !2249
  %6 = insertvalue { i8, i8 } %5, i8 %3, 1, !dbg !2249
  ret { i8, i8 } %6, !dbg !2249
}

; core::iter::traits::iterator::Iterator::for_each
; Function Attrs: inlinehint nounwind
define internal void @_ZN4core4iter6traits8iterator8Iterator8for_each17h003edabc4355739dE(i8 %self.0, i8 %self.1) unnamed_addr #1 !dbg !2250 {
start:
